---
triple:          'x86_64-apple-darwin'
binary-path:     rat25s
relocations:
  - { offsetInCU: 0x5C, offset: 0x5C, size: 0x8, addend: 0x0, symName: __ZNSt3__1L19piecewise_constructE, symObjAddr: 0x23194, symBinAddr: 0x100026084, symSize: 0x0 }
  - { offsetInCU: 0x8C, offset: 0x8C, size: 0x8, addend: 0x0, symName: __ZNSt3__17nulloptE, symObjAddr: 0x23195, symBinAddr: 0x100026085, symSize: 0x0 }
  - { offsetInCU: 0xDD, offset: 0xDD, size: 0x8, addend: 0x0, symName: __ZNSt3__18in_placeE, symObjAddr: 0x23196, symBinAddr: 0x100026086, symSize: 0x0 }
  - { offsetInCU: 0x1AC77, offset: 0x1AC77, size: 0x8, addend: 0x0, symName: __ZNSt3__124__put_character_sequenceB7v160006IcNS_11char_traitsIcEEEERNS_13basic_ostreamIT_T0_EES7_PKS4_m, symObjAddr: 0x1FA00, symBinAddr: 0x1000238E0, symSize: 0x1F0 }
  - { offsetInCU: 0x1C234, offset: 0x1C234, size: 0x8, addend: 0x0, symName: __ZNSt3__1lsB7v160006INS_11char_traitsIcEEEERNS_13basic_ostreamIcT_EES6_PKc, symObjAddr: 0x860, symBinAddr: 0x100004740, symSize: 0x40 }
  - { offsetInCU: 0x1C27A, offset: 0x1C27A, size: 0x8, addend: 0x0, symName: __ZNSt3__17getlineB7v160006IcNS_11char_traitsIcEENS_9allocatorIcEEEERNS_13basic_istreamIT_T0_EES9_RNS_12basic_stringIS6_S7_T1_EE, symObjAddr: 0x8A0, symBinAddr: 0x100004780, symSize: 0x50 }
  - { offsetInCU: 0x1C2D2, offset: 0x1C2D2, size: 0x8, addend: 0x0, symName: __ZNSt3__1lsB7v160006IcNS_11char_traitsIcEENS_9allocatorIcEEEERNS_13basic_ostreamIT_T0_EES9_RKNS_12basic_stringIS6_S7_T1_EE, symObjAddr: 0x910, symBinAddr: 0x1000047F0, symSize: 0x50 }
  - { offsetInCU: 0x1C32A, offset: 0x1C32A, size: 0x8, addend: 0x0, symName: __ZNSt3__14endlB7v160006IcNS_11char_traitsIcEEEERNS_13basic_ostreamIT_T0_EES7_, symObjAddr: 0x980, symBinAddr: 0x100004860, symSize: 0x50 }
  - { offsetInCU: 0x1CF9B, offset: 0x1CF9B, size: 0x8, addend: 0x0, symName: __ZNSt3__1lsB7v160006IcNS_11char_traitsIcEEEERNS_13basic_ostreamIT_T0_EES7_RKNS_8__iom_t6E, symObjAddr: 0x1220, symBinAddr: 0x100005100, symSize: 0x40 }
  - { offsetInCU: 0x1CFEA, offset: 0x1CFEA, size: 0x8, addend: 0x0, symName: __ZNSt3__14leftB7v160006ERNS_8ios_baseE, symObjAddr: 0x1290, symBinAddr: 0x100005170, symSize: 0x30 }
  - { offsetInCU: 0x1D018, offset: 0x1D018, size: 0x8, addend: 0x0, symName: __ZNSt3__14setwB7v160006Ei, symObjAddr: 0x12C0, symBinAddr: 0x1000051A0, symSize: 0x20 }
  - { offsetInCU: 0x1D05C, offset: 0x1D05C, size: 0x8, addend: 0x0, symName: __ZNSt3__119__debug_db_insert_cB7v160006INS_13unordered_mapINS_12basic_stringIcNS_11char_traitsIcEENS_9allocatorIcEEEE9TokenTypeNS_4hashIS7_EENS_8equal_toIS7_EENS5_INS_4pairIKS7_S8_EEEEEEEEvPT_, symObjAddr: 0x2650, symBinAddr: 0x100006530, symSize: 0x10 }
  - { offsetInCU: 0x1D0C4, offset: 0x1D0C4, size: 0x8, addend: 0x0, symName: __ZNSt3__116forward_as_tupleB7v160006IJNS_12basic_stringIcNS_11char_traitsIcEENS_9allocatorIcEEEEEEENS_5tupleIJDpOT_EEESA_, symObjAddr: 0x31E0, symBinAddr: 0x1000070C0, symSize: 0x30 }
  - { offsetInCU: 0x1D0FD, offset: 0x1D0FD, size: 0x8, addend: 0x0, symName: __ZNSt3__116forward_as_tupleB7v160006IJEEENS_5tupleIJDpOT_EEES4_, symObjAddr: 0x3210, symBinAddr: 0x1000070F0, symSize: 0x10 }
  - { offsetInCU: 0x1D121, offset: 0x1D121, size: 0x8, addend: 0x0, symName: __ZNSt3__116__constrain_hashB7v160006Emm, symObjAddr: 0x32F0, symBinAddr: 0x1000071D0, symSize: 0x80 }
  - { offsetInCU: 0x1D15B, offset: 0x1D15B, size: 0x8, addend: 0x0, symName: __ZNSt3__13maxB7v160006ImEERKT_S3_S3_, symObjAddr: 0x3600, symBinAddr: 0x1000074E0, symSize: 0x30 }
  - { offsetInCU: 0x1D19E, offset: 0x1D19E, size: 0x8, addend: 0x0, symName: __ZNSt3__116__is_hash_power2B7v160006Em, symObjAddr: 0x3630, symBinAddr: 0x100007510, symSize: 0x40 }
  - { offsetInCU: 0x1D1CA, offset: 0x1D1CA, size: 0x8, addend: 0x0, symName: __ZNSt3__116__do_string_hashB7v160006IPKcEEmT_S3_, symObjAddr: 0x3860, symBinAddr: 0x100007740, symSize: 0x40 }
  - { offsetInCU: 0x1D210, offset: 0x1D210, size: 0x8, addend: 0x0, symName: __ZNSt3__110__loadwordB7v160006ImEET_PKv, symObjAddr: 0x41D0, symBinAddr: 0x1000080B0, symSize: 0x20 }
  - { offsetInCU: 0x1D253, offset: 0x1D253, size: 0x8, addend: 0x0, symName: __ZNSt3__14swapB7v160006ImEENS_9enable_ifIXaasr21is_move_constructibleIT_EE5valuesr18is_move_assignableIS2_EE5valueEvE4typeERS2_S5_, symObjAddr: 0x4390, symBinAddr: 0x100008270, symSize: 0x40 }
  - { offsetInCU: 0x1D2A4, offset: 0x1D2A4, size: 0x8, addend: 0x0, symName: __ZNSt3__110__loadwordB7v160006IjEET_PKv, symObjAddr: 0x4420, symBinAddr: 0x100008300, symSize: 0x20 }
  - { offsetInCU: 0x1D2E7, offset: 0x1D2E7, size: 0x8, addend: 0x0, symName: __ZNSt3__112__to_addressB7v160006IKcEEPT_S3_, symObjAddr: 0x4570, symBinAddr: 0x100008450, symSize: 0x10 }
  - { offsetInCU: 0x1D34F, offset: 0x1D34F, size: 0x8, addend: 0x0, symName: __ZNSt3__1eqB7v160006INS_9allocatorIcEEEEbRKNS_12basic_stringIcNS_11char_traitsIcEET_EES9_, symObjAddr: 0x4830, symBinAddr: 0x100008710, symSize: 0x110 }
  - { offsetInCU: 0x1D3C2, offset: 0x1D3C2, size: 0x8, addend: 0x0, symName: __ZNSt3__118__constexpr_memcmpB7v160006IcEEiPKT_S3_m, symObjAddr: 0x49A0, symBinAddr: 0x100008880, symSize: 0x30 }
  - { offsetInCU: 0x1D413, offset: 0x1D413, size: 0x8, addend: 0x0, symName: __ZNSt3__17launderB7v160006IKNS_4pairIKNS_12basic_stringIcNS_11char_traitsIcEENS_9allocatorIcEEEE9TokenTypeEEEEPT_SD_, symObjAddr: 0x49D0, symBinAddr: 0x1000088B0, symSize: 0x20 }
  - { offsetInCU: 0x1D44A, offset: 0x1D44A, size: 0x8, addend: 0x0, symName: __ZNSt3__19__launderB7v160006IKNS_4pairIKNS_12basic_stringIcNS_11char_traitsIcEENS_9allocatorIcEEEE9TokenTypeEEEEPT_SD_, symObjAddr: 0x49F0, symBinAddr: 0x1000088D0, symSize: 0x10 }
  - { offsetInCU: 0x1D4D2, offset: 0x1D4D2, size: 0x8, addend: 0x0, symName: __ZNSt3__117__libcpp_allocateB7v160006Emm, symObjAddr: 0x4C30, symBinAddr: 0x100008B10, symSize: 0x60 }
  - { offsetInCU: 0x1D52C, offset: 0x1D52C, size: 0x8, addend: 0x0, symName: __ZNSt3__124__is_overaligned_for_newB7v160006Em, symObjAddr: 0x4CB0, symBinAddr: 0x100008B90, symSize: 0x20 }
  - { offsetInCU: 0x1D55A, offset: 0x1D55A, size: 0x8, addend: 0x0, symName: __ZNSt3__121__libcpp_operator_newB7v160006IJmSt11align_val_tEEEPvDpT_, symObjAddr: 0x4CD0, symBinAddr: 0x100008BB0, symSize: 0x30 }
  - { offsetInCU: 0x1D5A7, offset: 0x1D5A7, size: 0x8, addend: 0x0, symName: __ZNSt3__121__libcpp_operator_newB7v160006IJmEEEPvDpT_, symObjAddr: 0x4D00, symBinAddr: 0x100008BE0, symSize: 0x20 }
  - { offsetInCU: 0x1D5EB, offset: 0x1D5EB, size: 0x8, addend: 0x0, symName: __ZNSt3__13getB7v160006ILm0EJONS_12basic_stringIcNS_11char_traitsIcEENS_9allocatorIcEEEEEEERNS_13tuple_elementIXT_ENS_5tupleIJDpT0_EEEE4typeERSC_, symObjAddr: 0x4F50, symBinAddr: 0x100008E30, symSize: 0x20 }
  - { offsetInCU: 0x1D62E, offset: 0x1D62E, size: 0x8, addend: 0x0, symName: __ZNSt3__119__debug_db_insert_cB7v160006INS_12basic_stringIcNS_11char_traitsIcEENS_9allocatorIcEEEEEEvPT_, symObjAddr: 0x50A0, symBinAddr: 0x100008F80, symSize: 0x10 }
  - { offsetInCU: 0x1D65F, offset: 0x1D65F, size: 0x8, addend: 0x0, symName: __ZNSt3__115__debug_db_swapB7v160006INS_12basic_stringIcNS_11char_traitsIcEENS_9allocatorIcEEEEEEvPT_S8_, symObjAddr: 0x50B0, symBinAddr: 0x100008F90, symSize: 0x10 }
  - { offsetInCU: 0x1D69E, offset: 0x1D69E, size: 0x8, addend: 0x0, symName: __ZNSt3__116__next_hash_pow2B7v160006Em, symObjAddr: 0x5610, symBinAddr: 0x1000094F0, symSize: 0x60 }
  - { offsetInCU: 0x1D6CA, offset: 0x1D6CA, size: 0x8, addend: 0x0, symName: __ZNSt3__125__debug_db_invalidate_allB7v160006INS_12__hash_tableINS_17__hash_value_typeINS_12basic_stringIcNS_11char_traitsIcEENS_9allocatorIcEEEE9TokenTypeEENS_22__unordered_map_hasherIS8_SA_NS_4hashIS8_EENS_8equal_toIS8_EELb1EEENS_21__unordered_map_equalIS8_SA_SF_SD_Lb1EEENS6_ISA_EEEEEEvPT_, symObjAddr: 0x5670, symBinAddr: 0x100009550, symSize: 0x10 }
  - { offsetInCU: 0x1D717, offset: 0x1D717, size: 0x8, addend: 0x0, symName: __ZNSt3__119__libcpp_deallocateB7v160006EPvmm, symObjAddr: 0x58D0, symBinAddr: 0x1000097B0, symSize: 0x60 }
  - { offsetInCU: 0x1D77C, offset: 0x1D77C, size: 0x8, addend: 0x0, symName: __ZNSt3__127__do_deallocate_handle_sizeB7v160006IJSt11align_val_tEEEvPvmDpT_, symObjAddr: 0x5930, symBinAddr: 0x100009810, symSize: 0x30 }
  - { offsetInCU: 0x1D7CF, offset: 0x1D7CF, size: 0x8, addend: 0x0, symName: __ZNSt3__127__do_deallocate_handle_sizeB7v160006IJEEEvPvmDpT_, symObjAddr: 0x5960, symBinAddr: 0x100009840, symSize: 0x20 }
  - { offsetInCU: 0x1D80D, offset: 0x1D80D, size: 0x8, addend: 0x0, symName: __ZNSt3__124__libcpp_operator_deleteB7v160006IJPvSt11align_val_tEEEvDpT_, symObjAddr: 0x5980, symBinAddr: 0x100009860, symSize: 0x30 }
  - { offsetInCU: 0x1D856, offset: 0x1D856, size: 0x8, addend: 0x0, symName: __ZNSt3__124__libcpp_operator_deleteB7v160006IJPvEEEvDpT_, symObjAddr: 0x59B0, symBinAddr: 0x100009890, symSize: 0x20 }
  - { offsetInCU: 0x1D88B, offset: 0x1D88B, size: 0x8, addend: 0x0, symName: __ZNSt3__112__libcpp_clzB7v160006Em, symObjAddr: 0x5A80, symBinAddr: 0x100009960, symSize: 0x20 }
  - { offsetInCU: 0x1D8B7, offset: 0x1D8B7, size: 0x8, addend: 0x0, symName: __ZNSt3__13maxB7v160006ImNS_6__lessImmEEEERKT_S5_S5_T0_, symObjAddr: 0x5AA0, symBinAddr: 0x100009980, symSize: 0x50 }
  - { offsetInCU: 0x1D9A3, offset: 0x1D9A3, size: 0x8, addend: 0x0, symName: __ZNSt3__17launderB7v160006INS_4pairIKNS_12basic_stringIcNS_11char_traitsIcEENS_9allocatorIcEEEE9TokenTypeEEEEPT_SC_, symObjAddr: 0x5ED0, symBinAddr: 0x100009DB0, symSize: 0x20 }
  - { offsetInCU: 0x1D9DA, offset: 0x1D9DA, size: 0x8, addend: 0x0, symName: __ZNSt3__19__launderB7v160006INS_4pairIKNS_12basic_stringIcNS_11char_traitsIcEENS_9allocatorIcEEEE9TokenTypeEEEEPT_SC_, symObjAddr: 0x5EF0, symBinAddr: 0x100009DD0, symSize: 0x10 }
  - { offsetInCU: 0x1DA11, offset: 0x1DA11, size: 0x8, addend: 0x0, symName: __ZNSt3__118__debug_db_erase_cB7v160006INS_12__hash_tableINS_17__hash_value_typeINS_12basic_stringIcNS_11char_traitsIcEENS_9allocatorIcEEEE9TokenTypeEENS_22__unordered_map_hasherIS8_SA_NS_4hashIS8_EENS_8equal_toIS8_EELb1EEENS_21__unordered_map_equalIS8_SA_SF_SD_Lb1EEENS6_ISA_EEEEEEvPT_, symObjAddr: 0x6030, symBinAddr: 0x100009F10, symSize: 0x10 }
  - { offsetInCU: 0x1DA42, offset: 0x1DA42, size: 0x8, addend: 0x0, symName: __ZNSt3__1neB7v160006ERKNS_19__hash_map_iteratorINS_15__hash_iteratorIPNS_11__hash_nodeINS_17__hash_value_typeINS_12basic_stringIcNS_11char_traitsIcEENS_9allocatorIcEEEE9TokenTypeEEPvEEEEEESI_, symObjAddr: 0x6DD0, symBinAddr: 0x10000ACB0, symSize: 0x30 }
  - { offsetInCU: 0x1DA7F, offset: 0x1DA7F, size: 0x8, addend: 0x0, symName: __ZNSt3__1neB7v160006ERKNS_15__hash_iteratorIPNS_11__hash_nodeINS_17__hash_value_typeINS_12basic_stringIcNS_11char_traitsIcEENS_9allocatorIcEEEE9TokenTypeEEPvEEEESG_, symObjAddr: 0x6E70, symBinAddr: 0x10000AD50, symSize: 0x30 }
  - { offsetInCU: 0x1DABC, offset: 0x1DABC, size: 0x8, addend: 0x0, symName: __ZNSt3__1eqB7v160006ERKNS_15__hash_iteratorIPNS_11__hash_nodeINS_17__hash_value_typeINS_12basic_stringIcNS_11char_traitsIcEENS_9allocatorIcEEEE9TokenTypeEEPvEEEESG_, symObjAddr: 0x6EA0, symBinAddr: 0x10000AD80, symSize: 0x30 }
  - { offsetInCU: 0x1DAF9, offset: 0x1DAF9, size: 0x8, addend: 0x0, symName: __ZNSt3__119__debug_db_insert_cB7v160006INS_6vectorIN19Symbol_and_Assembly11InstructionENS_9allocatorIS3_EEEEEEvPT_, symObjAddr: 0x76A0, symBinAddr: 0x10000B580, symSize: 0x10 }
  - { offsetInCU: 0x1DB2A, offset: 0x1DB2A, size: 0x8, addend: 0x0, symName: __ZNSt3__119__debug_db_insert_cB7v160006INS_13unordered_mapINS_12basic_stringIcNS_11char_traitsIcEENS_9allocatorIcEEEEN19Symbol_and_Assembly10SymbolInfoENS_4hashIS7_EENS_8equal_toIS7_EENS5_INS_4pairIKS7_S9_EEEEEEEEvPT_, symObjAddr: 0x77C0, symBinAddr: 0x10000B6A0, symSize: 0x10 }
  - { offsetInCU: 0x1DB5B, offset: 0x1DB5B, size: 0x8, addend: 0x0, symName: __ZNSt3__13minB7v160006ImEERKT_S3_S3_, symObjAddr: 0x8500, symBinAddr: 0x10000C3E0, symSize: 0x30 }
  - { offsetInCU: 0x1DD88, offset: 0x1DD88, size: 0x8, addend: 0x0, symName: __ZNSt3__13minB7v160006ImNS_6__lessImmEEEERKT_S5_S5_T0_, symObjAddr: 0x8580, symBinAddr: 0x10000C460, symSize: 0x50 }
  - { offsetInCU: 0x1DDE3, offset: 0x1DDE3, size: 0x8, addend: 0x0, symName: __ZNSt3__120__throw_length_errorB7v160006EPKc, symObjAddr: 0x8630, symBinAddr: 0x10000C510, symSize: 0x70 }
  - { offsetInCU: 0x1DE0A, offset: 0x1DE0A, size: 0x8, addend: 0x0, symName: __ZNSt3__119__allocate_at_leastB7v160006INS_9allocatorIN19Symbol_and_Assembly11InstructionEEEEENS_19__allocation_resultINS_16allocator_traitsIT_E7pointerEEERS7_m, symObjAddr: 0x8830, symBinAddr: 0x10000C710, symSize: 0x40 }
  - { offsetInCU: 0x1DE4D, offset: 0x1DE4D, size: 0x8, addend: 0x0, symName: __ZNSt3__142__uninitialized_allocator_move_if_noexceptB7v160006INS_9allocatorIN19Symbol_and_Assembly11InstructionEEENS_16reverse_iteratorIPS3_EES7_S7_EET2_RT_T0_T1_S8_, symObjAddr: 0x8A80, symBinAddr: 0x10000C960, symSize: 0x180 }
  - { offsetInCU: 0x1DEEC, offset: 0x1DEEC, size: 0x8, addend: 0x0, symName: __ZNSt3__14swapB7v160006IPN19Symbol_and_Assembly11InstructionEEENS_9enable_ifIXaasr21is_move_constructibleIT_EE5valuesr18is_move_assignableIS5_EE5valueEvE4typeERS5_S8_, symObjAddr: 0x8C50, symBinAddr: 0x10000CB30, symSize: 0x40 }
  - { offsetInCU: 0x1DF3D, offset: 0x1DF3D, size: 0x8, addend: 0x0, symName: __ZNSt3__125__debug_db_invalidate_allB7v160006INS_6vectorIN19Symbol_and_Assembly11InstructionENS_9allocatorIS3_EEEEEEvPT_, symObjAddr: 0x8D50, symBinAddr: 0x10000CC30, symSize: 0x10 }
  - { offsetInCU: 0x1DF6E, offset: 0x1DF6E, size: 0x8, addend: 0x0, symName: __ZNSt3__112__to_addressB7v160006IN19Symbol_and_Assembly11InstructionEEEPT_S4_, symObjAddr: 0x8DA0, symBinAddr: 0x10000CC80, symSize: 0x10 }
  - { offsetInCU: 0x1DFA3, offset: 0x1DFA3, size: 0x8, addend: 0x0, symName: __ZNSt3__122__make_exception_guardB7v160006INS_29_AllocatorDestroyRangeReverseINS_9allocatorIN19Symbol_and_Assembly11InstructionEEENS_16reverse_iteratorIPS4_EEEEEENS_28__exception_guard_exceptionsIT_EESB_, symObjAddr: 0x8DB0, symBinAddr: 0x10000CC90, symSize: 0x60 }
  - { offsetInCU: 0x1DFD8, offset: 0x1DFD8, size: 0x8, addend: 0x0, symName: __ZNSt3__1neB7v160006IPN19Symbol_and_Assembly11InstructionES3_EEbRKNS_16reverse_iteratorIT_EERKNS4_IT0_EE, symObjAddr: 0x8E50, symBinAddr: 0x10000CD30, symSize: 0x40 }
  - { offsetInCU: 0x1E024, offset: 0x1E024, size: 0x8, addend: 0x0, symName: __ZNSt3__112__to_addressB7v160006INS_16reverse_iteratorIPN19Symbol_and_Assembly11InstructionEEEvEENS_5decayIDTclsr19__to_address_helperIT_EE6__callclsr3stdE7declvalIRKS7_EEEEE4typeES9_, symObjAddr: 0x8EC0, symBinAddr: 0x10000CDA0, symSize: 0x20 }
  - { offsetInCU: 0x1E083, offset: 0x1E083, size: 0x8, addend: 0x0, symName: __ZNSt3__119__allocator_destroyB7v160006INS_9allocatorIN19Symbol_and_Assembly11InstructionEEENS_16reverse_iteratorINS5_IPS3_EEEES8_EEvRT_T0_T1_, symObjAddr: 0x9260, symBinAddr: 0x10000D140, symSize: 0x70 }
  - { offsetInCU: 0x1E0E6, offset: 0x1E0E6, size: 0x8, addend: 0x0, symName: __ZNSt3__1neB7v160006INS_16reverse_iteratorIPN19Symbol_and_Assembly11InstructionEEES5_EEbRKNS1_IT_EERKNS1_IT0_EE, symObjAddr: 0x9300, symBinAddr: 0x10000D1E0, symSize: 0x50 }
  - { offsetInCU: 0x1E132, offset: 0x1E132, size: 0x8, addend: 0x0, symName: __ZNSt3__112__to_addressB7v160006INS_16reverse_iteratorINS1_IPN19Symbol_and_Assembly11InstructionEEEEEvEENS_5decayIDTclsr19__to_address_helperIT_EE6__callclsr3stdE7declvalIRKS8_EEEEE4typeESA_, symObjAddr: 0x9380, symBinAddr: 0x10000D260, symSize: 0x20 }
  - { offsetInCU: 0x1E191, offset: 0x1E191, size: 0x8, addend: 0x0, symName: __ZNSt3__1neB7v160006ERKNS_16__deque_iteratorIiPiRiPS1_lLl1024EEES6_, symObjAddr: 0x9C30, symBinAddr: 0x10000DB10, symSize: 0x30 }
  - { offsetInCU: 0x1E1CE, offset: 0x1E1CE, size: 0x8, addend: 0x0, symName: __ZNSt3__1eqB7v160006ERKNS_16__deque_iteratorIiPiRiPS1_lLl1024EEES6_, symObjAddr: 0x9E80, symBinAddr: 0x10000DD60, symSize: 0x30 }
  - { offsetInCU: 0x1E20B, offset: 0x1E20B, size: 0x8, addend: 0x0, symName: __ZNSt3__112__to_addressB7v160006IPiEEPT_S3_, symObjAddr: 0xA190, symBinAddr: 0x10000E070, symSize: 0x10 }
  - { offsetInCU: 0x1E240, offset: 0x1E240, size: 0x8, addend: 0x0, symName: __ZNSt3__1neB7v160006ERKNS_16__deque_iteratorI5ValuePS1_RS1_PS2_lLl73EEES7_, symObjAddr: 0xA6F0, symBinAddr: 0x10000E5D0, symSize: 0x30 }
  - { offsetInCU: 0x1E27D, offset: 0x1E27D, size: 0x8, addend: 0x0, symName: __ZNSt3__1eqB7v160006ERKNS_16__deque_iteratorI5ValuePS1_RS1_PS2_lLl73EEES7_, symObjAddr: 0xA940, symBinAddr: 0x10000E820, symSize: 0x30 }
  - { offsetInCU: 0x1E2BA, offset: 0x1E2BA, size: 0x8, addend: 0x0, symName: __ZNSt3__112__to_addressB7v160006IP5ValueEEPT_S4_, symObjAddr: 0xACA0, symBinAddr: 0x10000EB80, symSize: 0x10 }
  - { offsetInCU: 0x1E2EF, offset: 0x1E2EF, size: 0x8, addend: 0x0, symName: __ZNSt3__118__debug_db_erase_cB7v160006INS_12__hash_tableINS_17__hash_value_typeINS_12basic_stringIcNS_11char_traitsIcEENS_9allocatorIcEEEEN19Symbol_and_Assembly10SymbolInfoEEENS_22__unordered_map_hasherIS8_SB_NS_4hashIS8_EENS_8equal_toIS8_EELb1EEENS_21__unordered_map_equalIS8_SB_SG_SE_Lb1EEENS6_ISB_EEEEEEvPT_, symObjAddr: 0xAED0, symBinAddr: 0x10000EDB0, symSize: 0x10 }
  - { offsetInCU: 0x1E353, offset: 0x1E353, size: 0x8, addend: 0x0, symName: __ZNSt3__17launderB7v160006INS_4pairIKNS_12basic_stringIcNS_11char_traitsIcEENS_9allocatorIcEEEEN19Symbol_and_Assembly10SymbolInfoEEEEEPT_SD_, symObjAddr: 0xB0A0, symBinAddr: 0x10000EF80, symSize: 0x20 }
  - { offsetInCU: 0x1E38A, offset: 0x1E38A, size: 0x8, addend: 0x0, symName: __ZNSt3__19__launderB7v160006INS_4pairIKNS_12basic_stringIcNS_11char_traitsIcEENS_9allocatorIcEEEEN19Symbol_and_Assembly10SymbolInfoEEEEEPT_SD_, symObjAddr: 0xB0C0, symBinAddr: 0x10000EFA0, symSize: 0x10 }
  - { offsetInCU: 0x1E3C1, offset: 0x1E3C1, size: 0x8, addend: 0x0, symName: __ZNSt3__118__debug_db_erase_cB7v160006INS_6vectorIN19Symbol_and_Assembly11InstructionENS_9allocatorIS3_EEEEEEvPT_, symObjAddr: 0xB470, symBinAddr: 0x10000F350, symSize: 0x10 }
  - { offsetInCU: 0x1EE60, offset: 0x1EE60, size: 0x8, addend: 0x0, symName: __ZNSt3__1rsB7v160006IcNS_11char_traitsIcEENS_9allocatorIcEEEERNS_13basic_istreamIT_T0_EES9_RNS_12basic_stringIS6_S7_T1_EE, symObjAddr: 0xBB90, symBinAddr: 0x10000FA70, symSize: 0x2F0 }
  - { offsetInCU: 0x1EF45, offset: 0x1EF45, size: 0x8, addend: 0x0, symName: __ZNSt3__19use_facetB7v160006INS_5ctypeIcEEEERKT_RKNS_6localeE, symObjAddr: 0xC5C0, symBinAddr: 0x1000104A0, symSize: 0x30 }
  - { offsetInCU: 0x1F325, offset: 0x1F325, size: 0x8, addend: 0x0, symName: __ZNSt3__125__debug_db_invalidate_allB7v160006INS_12basic_stringIcNS_11char_traitsIcEENS_9allocatorIcEEEEEEvPT_, symObjAddr: 0xC7E0, symBinAddr: 0x1000106C0, symSize: 0x10 }
  - { offsetInCU: 0x1F389, offset: 0x1F389, size: 0x8, addend: 0x0, symName: __ZNSt3__112__to_addressB7v160006I5TokenEEPT_S3_, symObjAddr: 0xCBB0, symBinAddr: 0x100010A90, symSize: 0x10 }
  - { offsetInCU: 0x1F3BE, offset: 0x1F3BE, size: 0x8, addend: 0x0, symName: __ZNSt3__119__allocate_at_leastB7v160006INS_9allocatorI5TokenEEEENS_19__allocation_resultINS_16allocator_traitsIT_E7pointerEEERS6_m, symObjAddr: 0xD1D0, symBinAddr: 0x1000110B0, symSize: 0x40 }
  - { offsetInCU: 0x1F401, offset: 0x1F401, size: 0x8, addend: 0x0, symName: __ZNSt3__142__uninitialized_allocator_move_if_noexceptB7v160006INS_9allocatorI5TokenEENS_16reverse_iteratorIPS2_EES6_S6_EET2_RT_T0_T1_S7_, symObjAddr: 0xD430, symBinAddr: 0x100011310, symSize: 0x180 }
  - { offsetInCU: 0x1F4A0, offset: 0x1F4A0, size: 0x8, addend: 0x0, symName: __ZNSt3__14swapB7v160006IP5TokenEENS_9enable_ifIXaasr21is_move_constructibleIT_EE5valuesr18is_move_assignableIS4_EE5valueEvE4typeERS4_S7_, symObjAddr: 0xD600, symBinAddr: 0x1000114E0, symSize: 0x40 }
  - { offsetInCU: 0x1F4F1, offset: 0x1F4F1, size: 0x8, addend: 0x0, symName: __ZNSt3__125__debug_db_invalidate_allB7v160006INS_6vectorI5TokenNS_9allocatorIS2_EEEEEEvPT_, symObjAddr: 0xD6F0, symBinAddr: 0x1000115D0, symSize: 0x10 }
  - { offsetInCU: 0x1F522, offset: 0x1F522, size: 0x8, addend: 0x0, symName: __ZNSt3__122__make_exception_guardB7v160006INS_29_AllocatorDestroyRangeReverseINS_9allocatorI5TokenEENS_16reverse_iteratorIPS3_EEEEEENS_28__exception_guard_exceptionsIT_EESA_, symObjAddr: 0xD740, symBinAddr: 0x100011620, symSize: 0x60 }
  - { offsetInCU: 0x1F557, offset: 0x1F557, size: 0x8, addend: 0x0, symName: __ZNSt3__1neB7v160006IP5TokenS2_EEbRKNS_16reverse_iteratorIT_EERKNS3_IT0_EE, symObjAddr: 0xD7E0, symBinAddr: 0x1000116C0, symSize: 0x40 }
  - { offsetInCU: 0x1F5A3, offset: 0x1F5A3, size: 0x8, addend: 0x0, symName: __ZNSt3__112__to_addressB7v160006INS_16reverse_iteratorIP5TokenEEvEENS_5decayIDTclsr19__to_address_helperIT_EE6__callclsr3stdE7declvalIRKS6_EEEEE4typeES8_, symObjAddr: 0xD820, symBinAddr: 0x100011700, symSize: 0x20 }
  - { offsetInCU: 0x1F602, offset: 0x1F602, size: 0x8, addend: 0x0, symName: __ZNSt3__119__allocator_destroyB7v160006INS_9allocatorI5TokenEENS_16reverse_iteratorINS4_IPS2_EEEES7_EEvRT_T0_T1_, symObjAddr: 0xDB10, symBinAddr: 0x1000119F0, symSize: 0x70 }
  - { offsetInCU: 0x1F665, offset: 0x1F665, size: 0x8, addend: 0x0, symName: __ZNSt3__1neB7v160006INS_16reverse_iteratorIP5TokenEES4_EEbRKNS1_IT_EERKNS1_IT0_EE, symObjAddr: 0xDBB0, symBinAddr: 0x100011A90, symSize: 0x50 }
  - { offsetInCU: 0x1F6B1, offset: 0x1F6B1, size: 0x8, addend: 0x0, symName: __ZNSt3__112__to_addressB7v160006INS_16reverse_iteratorINS1_IP5TokenEEEEvEENS_5decayIDTclsr19__to_address_helperIT_EE6__callclsr3stdE7declvalIRKS7_EEEEE4typeES9_, symObjAddr: 0xDC30, symBinAddr: 0x100011B10, symSize: 0x20 }
  - { offsetInCU: 0x1F710, offset: 0x1F710, size: 0x8, addend: 0x0, symName: __ZNSt3__1eqB7v160006IcNS_11char_traitsIcEENS_9allocatorIcEEEEbRKNS_12basic_stringIT_T0_T1_EEPKS6_, symObjAddr: 0xE010, symBinAddr: 0x100011EF0, symSize: 0x90 }
  - { offsetInCU: 0x1F777, offset: 0x1F777, size: 0x8, addend: 0x0, symName: __ZNSt3__118__constexpr_strlenB7v160006EPKc, symObjAddr: 0xE0D0, symBinAddr: 0x100011FB0, symSize: 0x20 }
  - { offsetInCU: 0x1F7A3, offset: 0x1F7A3, size: 0x8, addend: 0x0, symName: __ZNSt3__116forward_as_tupleB7v160006IJRKNS_12basic_stringIcNS_11char_traitsIcEENS_9allocatorIcEEEEEEENS_5tupleIJDpOT_EEESC_, symObjAddr: 0xFAC0, symBinAddr: 0x1000139A0, symSize: 0x30 }
  - { offsetInCU: 0x1F7DC, offset: 0x1F7DC, size: 0x8, addend: 0x0, symName: __ZNSt3__17launderB7v160006IKNS_4pairIKNS_12basic_stringIcNS_11char_traitsIcEENS_9allocatorIcEEEEN19Symbol_and_Assembly10SymbolInfoEEEEEPT_SE_, symObjAddr: 0x10070, symBinAddr: 0x100013F50, symSize: 0x20 }
  - { offsetInCU: 0x1F813, offset: 0x1F813, size: 0x8, addend: 0x0, symName: __ZNSt3__19__launderB7v160006IKNS_4pairIKNS_12basic_stringIcNS_11char_traitsIcEENS_9allocatorIcEEEEN19Symbol_and_Assembly10SymbolInfoEEEEEPT_SE_, symObjAddr: 0x10090, symBinAddr: 0x100013F70, symSize: 0x10 }
  - { offsetInCU: 0x1F868, offset: 0x1F868, size: 0x8, addend: 0x0, symName: __ZNSt3__13getB7v160006ILm0EJRKNS_12basic_stringIcNS_11char_traitsIcEENS_9allocatorIcEEEEEEERNS_13tuple_elementIXT_ENS_5tupleIJDpT0_EEEE4typeERSD_, symObjAddr: 0x10480, symBinAddr: 0x100014360, symSize: 0x20 }
  - { offsetInCU: 0x1F8AB, offset: 0x1F8AB, size: 0x8, addend: 0x0, symName: __ZNSt3__125__debug_db_invalidate_allB7v160006INS_12__hash_tableINS_17__hash_value_typeINS_12basic_stringIcNS_11char_traitsIcEENS_9allocatorIcEEEEN19Symbol_and_Assembly10SymbolInfoEEENS_22__unordered_map_hasherIS8_SB_NS_4hashIS8_EENS_8equal_toIS8_EELb1EEENS_21__unordered_map_equalIS8_SB_SG_SE_Lb1EEENS6_ISB_EEEEEEvPT_, symObjAddr: 0x10D70, symBinAddr: 0x100014C50, symSize: 0x10 }
  - { offsetInCU: 0x1F924, offset: 0x1F924, size: 0x8, addend: 0x0, symName: __ZNSt3__1neB7v160006IcNS_11char_traitsIcEENS_9allocatorIcEEEEbRKNS_12basic_stringIT_T0_T1_EEPKS6_, symObjAddr: 0x113C0, symBinAddr: 0x1000152A0, symSize: 0x30 }
  - { offsetInCU: 0x1F97C, offset: 0x1F97C, size: 0x8, addend: 0x0, symName: __ZNSt3__112__to_addressB7v160006I5ValueEEPT_S3_, symObjAddr: 0x16C10, symBinAddr: 0x10001AAF0, symSize: 0x10 }
  - { offsetInCU: 0x1F9B1, offset: 0x1F9B1, size: 0x8, addend: 0x0, symName: __ZNSt3__1eqB7v160006ERKNS_19__hash_map_iteratorINS_15__hash_iteratorIPNS_11__hash_nodeINS_17__hash_value_typeINS_12basic_stringIcNS_11char_traitsIcEENS_9allocatorIcEEEEN19Symbol_and_Assembly10SymbolInfoEEEPvEEEEEESJ_, symObjAddr: 0x16EE0, symBinAddr: 0x10001ADC0, symSize: 0x30 }
  - { offsetInCU: 0x1F9EF, offset: 0x1F9EF, size: 0x8, addend: 0x0, symName: __ZNSt3__127__throw_bad_optional_accessB7v160006Ev, symObjAddr: 0x16F70, symBinAddr: 0x10001AE50, symSize: 0x40 }
  - { offsetInCU: 0x1FA07, offset: 0x1FA07, size: 0x8, addend: 0x0, symName: __ZNSt3__1eqB7v160006ERKNS_15__hash_iteratorIPNS_11__hash_nodeINS_17__hash_value_typeINS_12basic_stringIcNS_11char_traitsIcEENS_9allocatorIcEEEEN19Symbol_and_Assembly10SymbolInfoEEEPvEEEESH_, symObjAddr: 0x17250, symBinAddr: 0x10001B130, symSize: 0x30 }
  - { offsetInCU: 0x1FED0, offset: 0x1FED0, size: 0x8, addend: 0x0, symName: __ZNSt3__14swapB7v160006IPP5ValueEENS_9enable_ifIXaasr21is_move_constructibleIT_EE5valuesr18is_move_assignableIS5_EE5valueEvE4typeERS5_S8_, symObjAddr: 0x184F0, symBinAddr: 0x10001C3D0, symSize: 0x40 }
  - { offsetInCU: 0x1FF21, offset: 0x1FF21, size: 0x8, addend: 0x0, symName: __ZNSt3__14moveB7v160006IPP5ValueS3_EET0_T_S5_S4_, symObjAddr: 0x185B0, symBinAddr: 0x10001C490, symSize: 0x40 }
  - { offsetInCU: 0x1FF7B, offset: 0x1FF7B, size: 0x8, addend: 0x0, symName: __ZNSt3__16__moveB7v160006INS_17_ClassicAlgPolicyEPP5ValueS4_S4_EENS_4pairIT0_T2_EES6_T1_S7_, symObjAddr: 0x18750, symBinAddr: 0x10001C630, symSize: 0x40 }
  - { offsetInCU: 0x1FFE7, offset: 0x1FFE7, size: 0x8, addend: 0x0, symName: __ZNSt3__123__dispatch_copy_or_moveB7v160006INS_17_ClassicAlgPolicyENS_11__move_loopIS1_EENS_14__move_trivialEPP5ValueS7_S7_EENS_4pairIT2_T4_EES9_T3_SA_, symObjAddr: 0x18790, symBinAddr: 0x10001C670, symSize: 0x40 }
  - { offsetInCU: 0x20065, offset: 0x20065, size: 0x8, addend: 0x0, symName: __ZNSt3__121__unwrap_and_dispatchB7v160006INS_10__overloadINS_11__move_loopINS_17_ClassicAlgPolicyEEENS_14__move_trivialEEEPP5ValueS9_S9_Li0EEENS_4pairIT0_T2_EESB_T1_SC_, symObjAddr: 0x187D0, symBinAddr: 0x10001C6B0, symSize: 0xB0 }
  - { offsetInCU: 0x200F4, offset: 0x200F4, size: 0x8, addend: 0x0, symName: __ZNSt3__114__unwrap_rangeB7v160006IPP5ValueS3_EENS_4pairIT0_S5_EET_S7_, symObjAddr: 0x18880, symBinAddr: 0x10001C760, symSize: 0x50 }
  - { offsetInCU: 0x202F4, offset: 0x202F4, size: 0x8, addend: 0x0, symName: __ZNSt3__113__unwrap_iterB7v160006IPP5ValueNS_18__unwrap_iter_implIS3_Lb1EEELi0EEEDTclsrT0_8__unwrapclsr3stdE7declvalIT_EEEES7_, symObjAddr: 0x18910, symBinAddr: 0x10001C7F0, symSize: 0x20 }
  - { offsetInCU: 0x20338, offset: 0x20338, size: 0x8, addend: 0x0, symName: __ZNSt3__19make_pairB7v160006IPP5ValueS3_EENS_4pairINS_18__unwrap_ref_decayIT_E4typeENS5_IT0_E4typeEEEOS6_OS9_, symObjAddr: 0x18930, symBinAddr: 0x10001C810, symSize: 0x30 }
  - { offsetInCU: 0x20387, offset: 0x20387, size: 0x8, addend: 0x0, symName: __ZNSt3__114__rewrap_rangeB7v160006IPP5ValueS3_EET_S4_T0_, symObjAddr: 0x18960, symBinAddr: 0x10001C840, symSize: 0x30 }
  - { offsetInCU: 0x203D3, offset: 0x203D3, size: 0x8, addend: 0x0, symName: __ZNSt3__113__rewrap_iterB7v160006IPP5ValueS3_NS_18__unwrap_iter_implIS3_Lb1EEEEET_S6_T0_, symObjAddr: 0x18990, symBinAddr: 0x10001C870, symSize: 0x40 }
  - { offsetInCU: 0x20428, offset: 0x20428, size: 0x8, addend: 0x0, symName: __ZNSt3__119__copy_trivial_implB7v160006IP5ValueS2_EENS_4pairIPT_PT0_EES5_S5_S7_, symObjAddr: 0x189D0, symBinAddr: 0x10001C8B0, symSize: 0x70 }
  - { offsetInCU: 0x20490, offset: 0x20490, size: 0x8, addend: 0x0, symName: __ZNSt3__19make_pairB7v160006IRPP5ValueS3_EENS_4pairINS_18__unwrap_ref_decayIT_E4typeENS6_IT0_E4typeEEEOS7_OSA_, symObjAddr: 0x18A40, symBinAddr: 0x10001C920, symSize: 0x30 }
  - { offsetInCU: 0x20532, offset: 0x20532, size: 0x8, addend: 0x0, symName: __ZNSt3__18distanceB7v160006INS_13move_iteratorIPP5ValueEEEENS_15iterator_traitsIT_E15difference_typeES7_S7_, symObjAddr: 0x18BA0, symBinAddr: 0x10001CA80, symSize: 0x40 }
  - { offsetInCU: 0x20575, offset: 0x20575, size: 0x8, addend: 0x0, symName: __ZNSt3__110__distanceB7v160006INS_13move_iteratorIPP5ValueEEEENS_15iterator_traitsIT_E15difference_typeES7_S7_NS_26random_access_iterator_tagE, symObjAddr: 0x18CC0, symBinAddr: 0x10001CBA0, symSize: 0x30 }
  - { offsetInCU: 0x205C3, offset: 0x205C3, size: 0x8, addend: 0x0, symName: __ZNSt3__1miB7v160006IPP5ValueS3_EEDTmicldtfp_4baseEcldtfp0_4baseEERKNS_13move_iteratorIT_EERKNS5_IT0_EE, symObjAddr: 0x18CF0, symBinAddr: 0x10001CBD0, symSize: 0x40 }
  - { offsetInCU: 0x20612, offset: 0x20612, size: 0x8, addend: 0x0, symName: __ZNSt3__113move_backwardB7v160006IPP5ValueS3_EET0_T_S5_S4_, symObjAddr: 0x18EE0, symBinAddr: 0x10001CDC0, symSize: 0x40 }
  - { offsetInCU: 0x2066C, offset: 0x2066C, size: 0x8, addend: 0x0, symName: __ZNSt3__115__move_backwardB7v160006INS_17_ClassicAlgPolicyEPP5ValueS4_S4_EENS_4pairIT0_T2_EES6_T1_S7_, symObjAddr: 0x18F20, symBinAddr: 0x10001CE00, symSize: 0x40 }
  - { offsetInCU: 0x206D8, offset: 0x206D8, size: 0x8, addend: 0x0, symName: __ZNSt3__123__dispatch_copy_or_moveB7v160006INS_17_ClassicAlgPolicyENS_20__move_backward_loopIS1_EENS_23__move_backward_trivialEPP5ValueS7_S7_EENS_4pairIT2_T4_EES9_T3_SA_, symObjAddr: 0x18F60, symBinAddr: 0x10001CE40, symSize: 0x40 }
  - { offsetInCU: 0x20756, offset: 0x20756, size: 0x8, addend: 0x0, symName: __ZNSt3__121__unwrap_and_dispatchB7v160006INS_10__overloadINS_20__move_backward_loopINS_17_ClassicAlgPolicyEEENS_23__move_backward_trivialEEEPP5ValueS9_S9_Li0EEENS_4pairIT0_T2_EESB_T1_SC_, symObjAddr: 0x18FA0, symBinAddr: 0x10001CE80, symSize: 0xB0 }
  - { offsetInCU: 0x20867, offset: 0x20867, size: 0x8, addend: 0x0, symName: __ZNSt3__128__copy_backward_trivial_implB7v160006IP5ValueS2_EENS_4pairIPT_PT0_EES5_S5_S7_, symObjAddr: 0x19090, symBinAddr: 0x10001CF70, symSize: 0x80 }
  - { offsetInCU: 0x208CF, offset: 0x208CF, size: 0x8, addend: 0x0, symName: __ZNSt3__19make_pairB7v160006IRPP5ValueS4_EENS_4pairINS_18__unwrap_ref_decayIT_E4typeENS6_IT0_E4typeEEEOS7_OSA_, symObjAddr: 0x19110, symBinAddr: 0x10001CFF0, symSize: 0x30 }
  - { offsetInCU: 0x2091E, offset: 0x2091E, size: 0x8, addend: 0x0, symName: __ZNSt3__119__allocate_at_leastB7v160006INS_9allocatorIP5ValueEEEENS_19__allocation_resultINS_16allocator_traitsIT_E7pointerEEERS7_m, symObjAddr: 0x192A0, symBinAddr: 0x10001D180, symSize: 0x40 }
  - { offsetInCU: 0x20DBA, offset: 0x20DBA, size: 0x8, addend: 0x0, symName: __ZNSt3__14swapB7v160006IPPiEENS_9enable_ifIXaasr21is_move_constructibleIT_EE5valuesr18is_move_assignableIS4_EE5valueEvE4typeERS4_S7_, symObjAddr: 0x1AC30, symBinAddr: 0x10001EB10, symSize: 0x40 }
  - { offsetInCU: 0x20E0B, offset: 0x20E0B, size: 0x8, addend: 0x0, symName: __ZNSt3__14moveB7v160006IPPiS2_EET0_T_S4_S3_, symObjAddr: 0x1ACF0, symBinAddr: 0x10001EBD0, symSize: 0x40 }
  - { offsetInCU: 0x20E65, offset: 0x20E65, size: 0x8, addend: 0x0, symName: __ZNSt3__16__moveB7v160006INS_17_ClassicAlgPolicyEPPiS3_S3_EENS_4pairIT0_T2_EES5_T1_S6_, symObjAddr: 0x1AE90, symBinAddr: 0x10001ED70, symSize: 0x40 }
  - { offsetInCU: 0x20ED1, offset: 0x20ED1, size: 0x8, addend: 0x0, symName: __ZNSt3__123__dispatch_copy_or_moveB7v160006INS_17_ClassicAlgPolicyENS_11__move_loopIS1_EENS_14__move_trivialEPPiS6_S6_EENS_4pairIT2_T4_EES8_T3_S9_, symObjAddr: 0x1AED0, symBinAddr: 0x10001EDB0, symSize: 0x40 }
  - { offsetInCU: 0x20F4F, offset: 0x20F4F, size: 0x8, addend: 0x0, symName: __ZNSt3__121__unwrap_and_dispatchB7v160006INS_10__overloadINS_11__move_loopINS_17_ClassicAlgPolicyEEENS_14__move_trivialEEEPPiS8_S8_Li0EEENS_4pairIT0_T2_EESA_T1_SB_, symObjAddr: 0x1AF10, symBinAddr: 0x10001EDF0, symSize: 0xB0 }
  - { offsetInCU: 0x20FDE, offset: 0x20FDE, size: 0x8, addend: 0x0, symName: __ZNSt3__114__unwrap_rangeB7v160006IPPiS2_EENS_4pairIT0_S4_EET_S6_, symObjAddr: 0x1AFC0, symBinAddr: 0x10001EEA0, symSize: 0x50 }
  - { offsetInCU: 0x2115C, offset: 0x2115C, size: 0x8, addend: 0x0, symName: __ZNSt3__113__unwrap_iterB7v160006IPPiNS_18__unwrap_iter_implIS2_Lb1EEELi0EEEDTclsrT0_8__unwrapclsr3stdE7declvalIT_EEEES6_, symObjAddr: 0x1B050, symBinAddr: 0x10001EF30, symSize: 0x20 }
  - { offsetInCU: 0x211A0, offset: 0x211A0, size: 0x8, addend: 0x0, symName: __ZNSt3__19make_pairB7v160006IPPiS2_EENS_4pairINS_18__unwrap_ref_decayIT_E4typeENS4_IT0_E4typeEEEOS5_OS8_, symObjAddr: 0x1B070, symBinAddr: 0x10001EF50, symSize: 0x30 }
  - { offsetInCU: 0x211EF, offset: 0x211EF, size: 0x8, addend: 0x0, symName: __ZNSt3__114__rewrap_rangeB7v160006IPPiS2_EET_S3_T0_, symObjAddr: 0x1B0A0, symBinAddr: 0x10001EF80, symSize: 0x30 }
  - { offsetInCU: 0x2123B, offset: 0x2123B, size: 0x8, addend: 0x0, symName: __ZNSt3__113__rewrap_iterB7v160006IPPiS2_NS_18__unwrap_iter_implIS2_Lb1EEEEET_S5_T0_, symObjAddr: 0x1B0D0, symBinAddr: 0x10001EFB0, symSize: 0x40 }
  - { offsetInCU: 0x21290, offset: 0x21290, size: 0x8, addend: 0x0, symName: __ZNSt3__119__copy_trivial_implB7v160006IPiS1_EENS_4pairIPT_PT0_EES4_S4_S6_, symObjAddr: 0x1B110, symBinAddr: 0x10001EFF0, symSize: 0x70 }
  - { offsetInCU: 0x212F8, offset: 0x212F8, size: 0x8, addend: 0x0, symName: __ZNSt3__19make_pairB7v160006IRPPiS2_EENS_4pairINS_18__unwrap_ref_decayIT_E4typeENS5_IT0_E4typeEEEOS6_OS9_, symObjAddr: 0x1B180, symBinAddr: 0x10001F060, symSize: 0x30 }
  - { offsetInCU: 0x2139A, offset: 0x2139A, size: 0x8, addend: 0x0, symName: __ZNSt3__18distanceB7v160006INS_13move_iteratorIPPiEEEENS_15iterator_traitsIT_E15difference_typeES6_S6_, symObjAddr: 0x1B2E0, symBinAddr: 0x10001F1C0, symSize: 0x40 }
  - { offsetInCU: 0x213DD, offset: 0x213DD, size: 0x8, addend: 0x0, symName: __ZNSt3__110__distanceB7v160006INS_13move_iteratorIPPiEEEENS_15iterator_traitsIT_E15difference_typeES6_S6_NS_26random_access_iterator_tagE, symObjAddr: 0x1B400, symBinAddr: 0x10001F2E0, symSize: 0x30 }
  - { offsetInCU: 0x2142B, offset: 0x2142B, size: 0x8, addend: 0x0, symName: __ZNSt3__1miB7v160006IPPiS2_EEDTmicldtfp_4baseEcldtfp0_4baseEERKNS_13move_iteratorIT_EERKNS4_IT0_EE, symObjAddr: 0x1B430, symBinAddr: 0x10001F310, symSize: 0x40 }
  - { offsetInCU: 0x2147A, offset: 0x2147A, size: 0x8, addend: 0x0, symName: __ZNSt3__113move_backwardB7v160006IPPiS2_EET0_T_S4_S3_, symObjAddr: 0x1B620, symBinAddr: 0x10001F500, symSize: 0x40 }
  - { offsetInCU: 0x214D4, offset: 0x214D4, size: 0x8, addend: 0x0, symName: __ZNSt3__115__move_backwardB7v160006INS_17_ClassicAlgPolicyEPPiS3_S3_EENS_4pairIT0_T2_EES5_T1_S6_, symObjAddr: 0x1B660, symBinAddr: 0x10001F540, symSize: 0x40 }
  - { offsetInCU: 0x21540, offset: 0x21540, size: 0x8, addend: 0x0, symName: __ZNSt3__123__dispatch_copy_or_moveB7v160006INS_17_ClassicAlgPolicyENS_20__move_backward_loopIS1_EENS_23__move_backward_trivialEPPiS6_S6_EENS_4pairIT2_T4_EES8_T3_S9_, symObjAddr: 0x1B6A0, symBinAddr: 0x10001F580, symSize: 0x40 }
  - { offsetInCU: 0x215BE, offset: 0x215BE, size: 0x8, addend: 0x0, symName: __ZNSt3__121__unwrap_and_dispatchB7v160006INS_10__overloadINS_20__move_backward_loopINS_17_ClassicAlgPolicyEEENS_23__move_backward_trivialEEEPPiS8_S8_Li0EEENS_4pairIT0_T2_EESA_T1_SB_, symObjAddr: 0x1B6E0, symBinAddr: 0x10001F5C0, symSize: 0xB0 }
  - { offsetInCU: 0x2164D, offset: 0x2164D, size: 0x8, addend: 0x0, symName: __ZNSt3__128__copy_backward_trivial_implB7v160006IPiS1_EENS_4pairIPT_PT0_EES4_S4_S6_, symObjAddr: 0x1B7D0, symBinAddr: 0x10001F6B0, symSize: 0x80 }
  - { offsetInCU: 0x216B5, offset: 0x216B5, size: 0x8, addend: 0x0, symName: __ZNSt3__19make_pairB7v160006IRPPiS3_EENS_4pairINS_18__unwrap_ref_decayIT_E4typeENS5_IT0_E4typeEEEOS6_OS9_, symObjAddr: 0x1B850, symBinAddr: 0x10001F730, symSize: 0x30 }
  - { offsetInCU: 0x21704, offset: 0x21704, size: 0x8, addend: 0x0, symName: __ZNSt3__119__allocate_at_leastB7v160006INS_9allocatorIPiEEEENS_19__allocation_resultINS_16allocator_traitsIT_E7pointerEEERS6_m, symObjAddr: 0x1B9E0, symBinAddr: 0x10001F8C0, symSize: 0x40 }
  - { offsetInCU: 0x21747, offset: 0x21747, size: 0x8, addend: 0x0, symName: __ZNSt3__1neB7v160006ERKNS_19__hash_map_iteratorINS_15__hash_iteratorIPNS_11__hash_nodeINS_17__hash_value_typeINS_12basic_stringIcNS_11char_traitsIcEENS_9allocatorIcEEEEN19Symbol_and_Assembly10SymbolInfoEEEPvEEEEEESJ_, symObjAddr: 0x1D270, symBinAddr: 0x100021150, symSize: 0x30 }
  - { offsetInCU: 0x21784, offset: 0x21784, size: 0x8, addend: 0x0, symName: __ZNSt3__1neB7v160006ERKNS_15__hash_iteratorIPNS_11__hash_nodeINS_17__hash_value_typeINS_12basic_stringIcNS_11char_traitsIcEENS_9allocatorIcEEEEN19Symbol_and_Assembly10SymbolInfoEEEPvEEEESH_, symObjAddr: 0x1D2D0, symBinAddr: 0x1000211B0, symSize: 0x30 }
  - { offsetInCU: 0x217C1, offset: 0x217C1, size: 0x8, addend: 0x0, symName: __ZNSt3__112__to_addressB7v160006IiEEPT_S2_, symObjAddr: 0x1EE20, symBinAddr: 0x100022D00, symSize: 0x10 }
  - { offsetInCU: 0x217F6, offset: 0x217F6, size: 0x8, addend: 0x0, symName: __ZNSt3__1neB7v160006IPN19Symbol_and_Assembly11InstructionEEEbRKNS_11__wrap_iterIT_EES8_, symObjAddr: 0x1F550, symBinAddr: 0x100023430, symSize: 0x30 }
  - { offsetInCU: 0x21839, offset: 0x21839, size: 0x8, addend: 0x0, symName: __ZNSt3__1eqB7v160006IPN19Symbol_and_Assembly11InstructionEEEbRKNS_11__wrap_iterIT_EES8_, symObjAddr: 0x1F640, symBinAddr: 0x100023520, symSize: 0x40 }
  - { offsetInCU: 0x2187C, offset: 0x2187C, size: 0x8, addend: 0x0, symName: __ZNSt3__116__pad_and_outputB7v160006IcNS_11char_traitsIcEEEENS_19ostreambuf_iteratorIT_T0_EES6_PKS4_S8_S8_RNS_8ios_baseES4_, symObjAddr: 0x1FC10, symBinAddr: 0x100023AF0, symSize: 0x220 }
  - { offsetInCU: 0x2194C, offset: 0x2194C, size: 0x8, addend: 0x0, symName: __ZNSt3__112__to_addressB7v160006IcEEPT_S2_, symObjAddr: 0x1FF70, symBinAddr: 0x100023E50, symSize: 0x10 }
  - { offsetInCU: 0x21981, offset: 0x21981, size: 0x8, addend: 0x0, symName: __ZNSt3__17getlineB7v160006IcNS_11char_traitsIcEENS_9allocatorIcEEEERNS_13basic_istreamIT_T0_EES9_RNS_12basic_stringIS6_S7_T1_EES6_, symObjAddr: 0x20130, symBinAddr: 0x100024010, symSize: 0x220 }
  - { offsetInCU: 0x21A3F, offset: 0x21A3F, size: 0x8, addend: 0x0, symName: __ZNSt3__119__debug_db_insert_cB7v160006INS_6vectorI5TokenNS_9allocatorIS2_EEEEEEvPT_, symObjAddr: 0x20410, symBinAddr: 0x1000242F0, symSize: 0x10 }
  - { offsetInCU: 0x21A70, offset: 0x21A70, size: 0x8, addend: 0x0, symName: __ZNSt3__118__debug_db_erase_cB7v160006INS_6vectorI5TokenNS_9allocatorIS2_EEEEEEvPT_, symObjAddr: 0x205D0, symBinAddr: 0x1000244B0, symSize: 0x10 }
  - { offsetInCU: 0x220F9, offset: 0x220F9, size: 0x8, addend: 0x0, symName: __ZSt28__throw_bad_array_new_lengthB7v160006v, symObjAddr: 0x4BF0, symBinAddr: 0x100008AD0, symSize: 0x40 }
  - { offsetInCU: 0x24380, offset: 0x24380, size: 0x8, addend: 0x0, symName: __ZNSt3__16vectorIN19Symbol_and_Assembly11InstructionENS_9allocatorIS2_EEE26__swap_out_circular_bufferERNS_14__split_bufferIS2_RS4_EE, symObjAddr: 0x8360, symBinAddr: 0x10000C240, symSize: 0x130 }
  - { offsetInCU: 0x24910, offset: 0x24910, size: 0x8, addend: 0x0, symName: __ZNSt3__16vectorI5TokenNS_9allocatorIS1_EEE26__swap_out_circular_bufferERNS_14__split_bufferIS1_RS3_EE, symObjAddr: 0xCDF0, symBinAddr: 0x100010CD0, symSize: 0x130 }
  - { offsetInCU: 0x24BF6, offset: 0x24BF6, size: 0x8, addend: 0x0, symName: __Z7isalphai, symObjAddr: 0x6570, symBinAddr: 0x10000A450, symSize: 0x20 }
  - { offsetInCU: 0x24C4C, offset: 0x24C4C, size: 0x8, addend: 0x0, symName: __Z7isdigiti, symObjAddr: 0x60E0, symBinAddr: 0x100009FC0, symSize: 0x20 }
  - { offsetInCU: 0x24D0F, offset: 0x24D0F, size: 0x8, addend: 0x0, symName: __Z7toloweri, symObjAddr: 0x6DB0, symBinAddr: 0x10000AC90, symSize: 0x20 }
  - { offsetInCU: 0x26C22, offset: 0x26C22, size: 0x8, addend: 0x0, symName: _main, symObjAddr: 0x0, symBinAddr: 0x100003EE0, symSize: 0x840 }
  - { offsetInCU: 0x26D0B, offset: 0x26D0B, size: 0x8, addend: 0x0, symName: __ZNSt3__112basic_stringIcNS_11char_traitsIcEENS_9allocatorIcEEEC1B7v160006Ev, symObjAddr: 0x840, symBinAddr: 0x100004720, symSize: 0x20 }
  - { offsetInCU: 0x26D35, offset: 0x26D35, size: 0x8, addend: 0x0, symName: __ZNKSt3__112basic_stringIcNS_11char_traitsIcEENS_9allocatorIcEEE5c_strB7v160006Ev, symObjAddr: 0x8F0, symBinAddr: 0x1000047D0, symSize: 0x20 }
  - { offsetInCU: 0x26D5B, offset: 0x26D5B, size: 0x8, addend: 0x0, symName: __ZNSt3__113basic_ostreamIcNS_11char_traitsIcEEElsB7v160006EPFRS3_S4_E, symObjAddr: 0x960, symBinAddr: 0x100004840, symSize: 0x20 }
  - { offsetInCU: 0x26F79, offset: 0x26F79, size: 0x8, addend: 0x0, symName: __ZN15LexicalAnalyzerC1Ev, symObjAddr: 0x9D0, symBinAddr: 0x1000048B0, symSize: 0x20 }
  - { offsetInCU: 0x26FA3, offset: 0x26FA3, size: 0x8, addend: 0x0, symName: __ZNSt3__16vectorI5TokenNS_9allocatorIS1_EEEC1B7v160006Ev, symObjAddr: 0x9F0, symBinAddr: 0x1000048D0, symSize: 0x20 }
  - { offsetInCU: 0x26FCD, offset: 0x26FCD, size: 0x8, addend: 0x0, symName: __ZN15LexicalAnalyzer5lexerEP7__sFILE, symObjAddr: 0xA10, symBinAddr: 0x1000048F0, symSize: 0x540 }
  - { offsetInCU: 0x27040, offset: 0x27040, size: 0x8, addend: 0x0, symName: __ZNKSt3__112basic_stringIcNS_11char_traitsIcEENS_9allocatorIcEEE5emptyB7v160006Ev, symObjAddr: 0xF50, symBinAddr: 0x100004E30, symSize: 0x30 }
  - { offsetInCU: 0x27066, offset: 0x27066, size: 0x8, addend: 0x0, symName: __ZNSt3__16vectorI5TokenNS_9allocatorIS1_EEE9push_backB7v160006ERKS1_, symObjAddr: 0xF80, symBinAddr: 0x100004E60, symSize: 0x60 }
  - { offsetInCU: 0x2709D, offset: 0x2709D, size: 0x8, addend: 0x0, symName: __ZN5TokenD1Ev, symObjAddr: 0xFE0, symBinAddr: 0x100004EC0, symSize: 0x20 }
  - { offsetInCU: 0x270CF, offset: 0x270CF, size: 0x8, addend: 0x0, symName: __ZNSt3__112basic_stringIcNS_11char_traitsIcEENS_9allocatorIcEEEC1B7v160006IDnEEPKc, symObjAddr: 0x1000, symBinAddr: 0x100004EE0, symSize: 0x30 }
  - { offsetInCU: 0x2712A, offset: 0x2712A, size: 0x8, addend: 0x0, symName: __ZNSt3__114basic_ofstreamIcNS_11char_traitsIcEEEC1ERKNS_12basic_stringIcS2_NS_9allocatorIcEEEEj, symObjAddr: 0x1030, symBinAddr: 0x100004F10, symSize: 0x160 }
  - { offsetInCU: 0x27174, offset: 0x27174, size: 0x8, addend: 0x0, symName: __ZNKSt3__19basic_iosIcNS_11char_traitsIcEEEntB7v160006Ev, symObjAddr: 0x1190, symBinAddr: 0x100005070, symSize: 0x20 }
  - { offsetInCU: 0x2719A, offset: 0x2719A, size: 0x8, addend: 0x0, symName: __ZNKSt3__16vectorI5TokenNS_9allocatorIS1_EEE4sizeB7v160006Ev, symObjAddr: 0x11B0, symBinAddr: 0x100005090, symSize: 0x20 }
  - { offsetInCU: 0x271C0, offset: 0x271C0, size: 0x8, addend: 0x0, symName: __ZNSt3__16vectorI5TokenNS_9allocatorIS1_EEEixB7v160006Em, symObjAddr: 0x11D0, symBinAddr: 0x1000050B0, symSize: 0x20 }
  - { offsetInCU: 0x271F7, offset: 0x271F7, size: 0x8, addend: 0x0, symName: __ZNSt3__112basic_stringIcNS_11char_traitsIcEENS_9allocatorIcEEEaSB7v160006EPKc, symObjAddr: 0x11F0, symBinAddr: 0x1000050D0, symSize: 0x30 }
  - { offsetInCU: 0x2722C, offset: 0x2722C, size: 0x8, addend: 0x0, symName: __ZNSt3__113basic_ostreamIcNS_11char_traitsIcEEElsB7v160006EPFRNS_8ios_baseES5_E, symObjAddr: 0x1260, symBinAddr: 0x100005140, symSize: 0x30 }
  - { offsetInCU: 0x27600, offset: 0x27600, size: 0x8, addend: 0x0, symName: __ZN14SyntaxAnalyzerC1Ev, symObjAddr: 0x12E0, symBinAddr: 0x1000051C0, symSize: 0x20 }
  - { offsetInCU: 0x2767A, offset: 0x2767A, size: 0x8, addend: 0x0, symName: __ZN16OutputRedirectorC1ERKNSt3__112basic_stringIcNS0_11char_traitsIcEENS0_9allocatorIcEEEE, symObjAddr: 0x1300, symBinAddr: 0x1000051E0, symSize: 0x30 }
  - { offsetInCU: 0x276B2, offset: 0x276B2, size: 0x8, addend: 0x0, symName: __ZN14SyntaxAnalyzer8readFileERKNSt3__112basic_stringIcNS0_11char_traitsIcEENS0_9allocatorIcEEEERKi, symObjAddr: 0x1330, symBinAddr: 0x100005210, symSize: 0x340 }
  - { offsetInCU: 0x2776D, offset: 0x2776D, size: 0x8, addend: 0x0, symName: __ZN14SyntaxAnalyzer6Rat25SEv, symObjAddr: 0x1670, symBinAddr: 0x100005550, symSize: 0x500 }
  - { offsetInCU: 0x277A2, offset: 0x277A2, size: 0x8, addend: 0x0, symName: __ZN14SyntaxAnalyzer11display_RPDERKNSt3__112basic_stringIcNS0_11char_traitsIcEENS0_9allocatorIcEEEE, symObjAddr: 0x1B70, symBinAddr: 0x100005A50, symSize: 0x150 }
  - { offsetInCU: 0x277E9, offset: 0x277E9, size: 0x8, addend: 0x0, symName: __ZN16OutputRedirectorD1Ev, symObjAddr: 0x1CC0, symBinAddr: 0x100005BA0, symSize: 0x20 }
  - { offsetInCU: 0x27813, offset: 0x27813, size: 0x8, addend: 0x0, symName: __ZN14SyntaxAnalyzerD1Ev, symObjAddr: 0x1CE0, symBinAddr: 0x100005BC0, symSize: 0x20 }
  - { offsetInCU: 0x27846, offset: 0x27846, size: 0x8, addend: 0x0, symName: __ZNSt3__114basic_ofstreamIcNS_11char_traitsIcEEED1Ev, symObjAddr: 0x1D00, symBinAddr: 0x100005BE0, symSize: 0x40 }
  - { offsetInCU: 0x27873, offset: 0x27873, size: 0x8, addend: 0x0, symName: __ZNSt3__16vectorI5TokenNS_9allocatorIS1_EEED1B7v160006Ev, symObjAddr: 0x1D40, symBinAddr: 0x100005C20, symSize: 0x20 }
  - { offsetInCU: 0x2789D, offset: 0x2789D, size: 0x8, addend: 0x0, symName: __ZN15LexicalAnalyzerD1Ev, symObjAddr: 0x1D60, symBinAddr: 0x100005C40, symSize: 0x20 }
  - { offsetInCU: 0x278C9, offset: 0x278C9, size: 0x8, addend: 0x0, symName: __ZN15LexicalAnalyzerC2Ev, symObjAddr: 0x1D80, symBinAddr: 0x100005C60, symSize: 0x7C0 }
  - { offsetInCU: 0x278F3, offset: 0x278F3, size: 0x8, addend: 0x0, symName: __ZNSt3__113unordered_mapINS_12basic_stringIcNS_11char_traitsIcEENS_9allocatorIcEEEE9TokenTypeNS_4hashIS6_EENS_8equal_toIS6_EENS4_INS_4pairIKS6_S7_EEEEEC1B7v160006Ev, symObjAddr: 0x2540, symBinAddr: 0x100006420, symSize: 0x20 }
  - { offsetInCU: 0x2791D, offset: 0x2791D, size: 0x8, addend: 0x0, symName: __ZNSt3__113unordered_mapINS_12basic_stringIcNS_11char_traitsIcEENS_9allocatorIcEEEE9TokenTypeNS_4hashIS6_EENS_8equal_toIS6_EENS4_INS_4pairIKS6_S7_EEEEEixEOS6_, symObjAddr: 0x2560, symBinAddr: 0x100006440, symSize: 0x70 }
  - { offsetInCU: 0x27954, offset: 0x27954, size: 0x8, addend: 0x0, symName: __ZNSt3__113unordered_mapINS_12basic_stringIcNS_11char_traitsIcEENS_9allocatorIcEEEE9TokenTypeNS_4hashIS6_EENS_8equal_toIS6_EENS4_INS_4pairIKS6_S7_EEEEED1B7v160006Ev, symObjAddr: 0x25D0, symBinAddr: 0x1000064B0, symSize: 0x20 }
  - { offsetInCU: 0x2797E, offset: 0x2797E, size: 0x8, addend: 0x0, symName: __ZNSt3__113unordered_mapINS_12basic_stringIcNS_11char_traitsIcEENS_9allocatorIcEEEE9TokenTypeNS_4hashIS6_EENS_8equal_toIS6_EENS4_INS_4pairIKS6_S7_EEEEEC2B7v160006Ev, symObjAddr: 0x25F0, symBinAddr: 0x1000064D0, symSize: 0x40 }
  - { offsetInCU: 0x279A8, offset: 0x279A8, size: 0x8, addend: 0x0, symName: __ZNSt3__112__hash_tableINS_17__hash_value_typeINS_12basic_stringIcNS_11char_traitsIcEENS_9allocatorIcEEEE9TokenTypeEENS_22__unordered_map_hasherIS7_S9_NS_4hashIS7_EENS_8equal_toIS7_EELb1EEENS_21__unordered_map_equalIS7_S9_SE_SC_Lb1EEENS5_IS9_EEEC1Ev, symObjAddr: 0x2630, symBinAddr: 0x100006510, symSize: 0x20 }
  - { offsetInCU: 0x279D4, offset: 0x279D4, size: 0x8, addend: 0x0, symName: __ZNSt3__112__hash_tableINS_17__hash_value_typeINS_12basic_stringIcNS_11char_traitsIcEENS_9allocatorIcEEEE9TokenTypeEENS_22__unordered_map_hasherIS7_S9_NS_4hashIS7_EENS_8equal_toIS7_EELb1EEENS_21__unordered_map_equalIS7_S9_SE_SC_Lb1EEENS5_IS9_EEEC2Ev, symObjAddr: 0x2670, symBinAddr: 0x100006550, symSize: 0x80 }
  - { offsetInCU: 0x27A00, offset: 0x27A00, size: 0x8, addend: 0x0, symName: __ZNSt3__110unique_ptrIA_PNS_16__hash_node_baseIPNS_11__hash_nodeINS_17__hash_value_typeINS_12basic_stringIcNS_11char_traitsIcEENS_9allocatorIcEEEE9TokenTypeEEPvEEEENS_25__bucket_list_deallocatorINS7_ISG_EEEEEC1B7v160006ILb1EvEEv, symObjAddr: 0x26F0, symBinAddr: 0x1000065D0, symSize: 0x20 }
  - { offsetInCU: 0x27A35, offset: 0x27A35, size: 0x8, addend: 0x0, symName: __ZNSt3__117__compressed_pairINS_16__hash_node_baseIPNS_11__hash_nodeINS_17__hash_value_typeINS_12basic_stringIcNS_11char_traitsIcEENS_9allocatorIcEEEE9TokenTypeEEPvEEEENS7_ISD_EEEC1B7v160006ILb1EvEEv, symObjAddr: 0x2710, symBinAddr: 0x1000065F0, symSize: 0x20 }
  - { offsetInCU: 0x27A76, offset: 0x27A76, size: 0x8, addend: 0x0, symName: __ZNSt3__117__compressed_pairImNS_22__unordered_map_hasherINS_12basic_stringIcNS_11char_traitsIcEENS_9allocatorIcEEEENS_17__hash_value_typeIS7_9TokenTypeEENS_4hashIS7_EENS_8equal_toIS7_EELb1EEEEC1B7v160006IiNS_18__default_init_tagEEEOT_OT0_, symObjAddr: 0x2730, symBinAddr: 0x100006610, symSize: 0x30 }
  - { offsetInCU: 0x27AD4, offset: 0x27AD4, size: 0x8, addend: 0x0, symName: __ZNSt3__117__compressed_pairIfNS_21__unordered_map_equalINS_12basic_stringIcNS_11char_traitsIcEENS_9allocatorIcEEEENS_17__hash_value_typeIS7_9TokenTypeEENS_8equal_toIS7_EENS_4hashIS7_EELb1EEEEC1B7v160006IfNS_18__default_init_tagEEEOT_OT0_, symObjAddr: 0x2760, symBinAddr: 0x100006640, symSize: 0x30 }
  - { offsetInCU: 0x27B2C, offset: 0x27B2C, size: 0x8, addend: 0x0, symName: __ZNSt3__110unique_ptrIA_PNS_16__hash_node_baseIPNS_11__hash_nodeINS_17__hash_value_typeINS_12basic_stringIcNS_11char_traitsIcEENS_9allocatorIcEEEE9TokenTypeEEPvEEEENS_25__bucket_list_deallocatorINS7_ISG_EEEEEC2B7v160006ILb1EvEEv, symObjAddr: 0x2790, symBinAddr: 0x100006670, symSize: 0x30 }
  - { offsetInCU: 0x27B67, offset: 0x27B67, size: 0x8, addend: 0x0, symName: __ZNSt3__117__compressed_pairIPPNS_16__hash_node_baseIPNS_11__hash_nodeINS_17__hash_value_typeINS_12basic_stringIcNS_11char_traitsIcEENS_9allocatorIcEEEE9TokenTypeEEPvEEEENS_25__bucket_list_deallocatorINS7_ISG_EEEEEC1B7v160006INS_16__value_init_tagESN_EEOT_OT0_, symObjAddr: 0x27C0, symBinAddr: 0x1000066A0, symSize: 0x30 }
  - { offsetInCU: 0x27BBF, offset: 0x27BBF, size: 0x8, addend: 0x0, symName: __ZNSt3__117__compressed_pairIPPNS_16__hash_node_baseIPNS_11__hash_nodeINS_17__hash_value_typeINS_12basic_stringIcNS_11char_traitsIcEENS_9allocatorIcEEEE9TokenTypeEEPvEEEENS_25__bucket_list_deallocatorINS7_ISG_EEEEEC2B7v160006INS_16__value_init_tagESN_EEOT_OT0_, symObjAddr: 0x27F0, symBinAddr: 0x1000066D0, symSize: 0x40 }
  - { offsetInCU: 0x27C17, offset: 0x27C17, size: 0x8, addend: 0x0, symName: __ZNSt3__122__compressed_pair_elemIPPNS_16__hash_node_baseIPNS_11__hash_nodeINS_17__hash_value_typeINS_12basic_stringIcNS_11char_traitsIcEENS_9allocatorIcEEEE9TokenTypeEEPvEEEELi0ELb0EEC2B7v160006ENS_16__value_init_tagE, symObjAddr: 0x2830, symBinAddr: 0x100006710, symSize: 0x20 }
  - { offsetInCU: 0x27C4C, offset: 0x27C4C, size: 0x8, addend: 0x0, symName: __ZNSt3__122__compressed_pair_elemINS_25__bucket_list_deallocatorINS_9allocatorIPNS_16__hash_node_baseIPNS_11__hash_nodeINS_17__hash_value_typeINS_12basic_stringIcNS_11char_traitsIcEENS2_IcEEEE9TokenTypeEEPvEEEEEEEELi1ELb0EEC2B7v160006ENS_16__value_init_tagE, symObjAddr: 0x2850, symBinAddr: 0x100006730, symSize: 0x20 }
  - { offsetInCU: 0x27C81, offset: 0x27C81, size: 0x8, addend: 0x0, symName: __ZNSt3__125__bucket_list_deallocatorINS_9allocatorIPNS_16__hash_node_baseIPNS_11__hash_nodeINS_17__hash_value_typeINS_12basic_stringIcNS_11char_traitsIcEENS1_IcEEEE9TokenTypeEEPvEEEEEEEC1B7v160006Ev, symObjAddr: 0x2870, symBinAddr: 0x100006750, symSize: 0x20 }
  - { offsetInCU: 0x27CAB, offset: 0x27CAB, size: 0x8, addend: 0x0, symName: __ZNSt3__125__bucket_list_deallocatorINS_9allocatorIPNS_16__hash_node_baseIPNS_11__hash_nodeINS_17__hash_value_typeINS_12basic_stringIcNS_11char_traitsIcEENS1_IcEEEE9TokenTypeEEPvEEEEEEEC2B7v160006Ev, symObjAddr: 0x2890, symBinAddr: 0x100006770, symSize: 0x40 }
  - { offsetInCU: 0x27CD5, offset: 0x27CD5, size: 0x8, addend: 0x0, symName: __ZNSt3__117__compressed_pairImNS_9allocatorIPNS_16__hash_node_baseIPNS_11__hash_nodeINS_17__hash_value_typeINS_12basic_stringIcNS_11char_traitsIcEENS1_IcEEEE9TokenTypeEEPvEEEEEEEC1B7v160006IiNS_18__default_init_tagEEEOT_OT0_, symObjAddr: 0x28D0, symBinAddr: 0x1000067B0, symSize: 0x30 }
  - { offsetInCU: 0x27D2D, offset: 0x27D2D, size: 0x8, addend: 0x0, symName: __ZNSt3__117__compressed_pairImNS_9allocatorIPNS_16__hash_node_baseIPNS_11__hash_nodeINS_17__hash_value_typeINS_12basic_stringIcNS_11char_traitsIcEENS1_IcEEEE9TokenTypeEEPvEEEEEEEC2B7v160006IiNS_18__default_init_tagEEEOT_OT0_, symObjAddr: 0x2900, symBinAddr: 0x1000067E0, symSize: 0x40 }
  - { offsetInCU: 0x27D85, offset: 0x27D85, size: 0x8, addend: 0x0, symName: __ZNSt3__122__compressed_pair_elemImLi0ELb0EEC2B7v160006IivEEOT_, symObjAddr: 0x2940, symBinAddr: 0x100006820, symSize: 0x20 }
  - { offsetInCU: 0x27DC7, offset: 0x27DC7, size: 0x8, addend: 0x0, symName: __ZNSt3__122__compressed_pair_elemINS_9allocatorIPNS_16__hash_node_baseIPNS_11__hash_nodeINS_17__hash_value_typeINS_12basic_stringIcNS_11char_traitsIcEENS1_IcEEEE9TokenTypeEEPvEEEEEELi1ELb1EEC2B7v160006ENS_18__default_init_tagE, symObjAddr: 0x2960, symBinAddr: 0x100006840, symSize: 0x20 }
  - { offsetInCU: 0x27DFC, offset: 0x27DFC, size: 0x8, addend: 0x0, symName: __ZNSt3__19allocatorIPNS_16__hash_node_baseIPNS_11__hash_nodeINS_17__hash_value_typeINS_12basic_stringIcNS_11char_traitsIcEENS0_IcEEEE9TokenTypeEEPvEEEEEC2B7v160006Ev, symObjAddr: 0x2980, symBinAddr: 0x100006860, symSize: 0x20 }
  - { offsetInCU: 0x27E26, offset: 0x27E26, size: 0x8, addend: 0x0, symName: __ZNSt3__116__non_trivial_ifILb1ENS_9allocatorIPNS_16__hash_node_baseIPNS_11__hash_nodeINS_17__hash_value_typeINS_12basic_stringIcNS_11char_traitsIcEENS1_IcEEEE9TokenTypeEEPvEEEEEEEC2B7v160006Ev, symObjAddr: 0x29A0, symBinAddr: 0x100006880, symSize: 0x10 }
  - { offsetInCU: 0x27E50, offset: 0x27E50, size: 0x8, addend: 0x0, symName: __ZNSt3__117__compressed_pairINS_16__hash_node_baseIPNS_11__hash_nodeINS_17__hash_value_typeINS_12basic_stringIcNS_11char_traitsIcEENS_9allocatorIcEEEE9TokenTypeEEPvEEEENS7_ISD_EEEC2B7v160006ILb1EvEEv, symObjAddr: 0x29B0, symBinAddr: 0x100006890, symSize: 0x30 }
  - { offsetInCU: 0x27E85, offset: 0x27E85, size: 0x8, addend: 0x0, symName: __ZNSt3__122__compressed_pair_elemINS_16__hash_node_baseIPNS_11__hash_nodeINS_17__hash_value_typeINS_12basic_stringIcNS_11char_traitsIcEENS_9allocatorIcEEEE9TokenTypeEEPvEEEELi0ELb0EEC2B7v160006ENS_16__value_init_tagE, symObjAddr: 0x29E0, symBinAddr: 0x1000068C0, symSize: 0x20 }
  - { offsetInCU: 0x27EBA, offset: 0x27EBA, size: 0x8, addend: 0x0, symName: __ZNSt3__122__compressed_pair_elemINS_9allocatorINS_11__hash_nodeINS_17__hash_value_typeINS_12basic_stringIcNS_11char_traitsIcEENS1_IcEEEE9TokenTypeEEPvEEEELi1ELb1EEC2B7v160006ENS_16__value_init_tagE, symObjAddr: 0x2A00, symBinAddr: 0x1000068E0, symSize: 0x20 }
  - { offsetInCU: 0x27EEF, offset: 0x27EEF, size: 0x8, addend: 0x0, symName: __ZNSt3__116__hash_node_baseIPNS_11__hash_nodeINS_17__hash_value_typeINS_12basic_stringIcNS_11char_traitsIcEENS_9allocatorIcEEEE9TokenTypeEEPvEEEC1B7v160006Ev, symObjAddr: 0x2A20, symBinAddr: 0x100006900, symSize: 0x20 }
  - { offsetInCU: 0x27F19, offset: 0x27F19, size: 0x8, addend: 0x0, symName: __ZNSt3__116__hash_node_baseIPNS_11__hash_nodeINS_17__hash_value_typeINS_12basic_stringIcNS_11char_traitsIcEENS_9allocatorIcEEEE9TokenTypeEEPvEEEC2B7v160006Ev, symObjAddr: 0x2A40, symBinAddr: 0x100006920, symSize: 0x20 }
  - { offsetInCU: 0x27F43, offset: 0x27F43, size: 0x8, addend: 0x0, symName: __ZNSt3__19allocatorINS_11__hash_nodeINS_17__hash_value_typeINS_12basic_stringIcNS_11char_traitsIcEENS0_IcEEEE9TokenTypeEEPvEEEC2B7v160006Ev, symObjAddr: 0x2A60, symBinAddr: 0x100006940, symSize: 0x20 }
  - { offsetInCU: 0x27F6D, offset: 0x27F6D, size: 0x8, addend: 0x0, symName: __ZNSt3__116__non_trivial_ifILb1ENS_9allocatorINS_11__hash_nodeINS_17__hash_value_typeINS_12basic_stringIcNS_11char_traitsIcEENS1_IcEEEE9TokenTypeEEPvEEEEEC2B7v160006Ev, symObjAddr: 0x2A80, symBinAddr: 0x100006960, symSize: 0x10 }
  - { offsetInCU: 0x27F97, offset: 0x27F97, size: 0x8, addend: 0x0, symName: __ZNSt3__117__compressed_pairImNS_22__unordered_map_hasherINS_12basic_stringIcNS_11char_traitsIcEENS_9allocatorIcEEEENS_17__hash_value_typeIS7_9TokenTypeEENS_4hashIS7_EENS_8equal_toIS7_EELb1EEEEC2B7v160006IiNS_18__default_init_tagEEEOT_OT0_, symObjAddr: 0x2A90, symBinAddr: 0x100006970, symSize: 0x40 }
  - { offsetInCU: 0x27FEF, offset: 0x27FEF, size: 0x8, addend: 0x0, symName: __ZNSt3__122__compressed_pair_elemINS_22__unordered_map_hasherINS_12basic_stringIcNS_11char_traitsIcEENS_9allocatorIcEEEENS_17__hash_value_typeIS7_9TokenTypeEENS_4hashIS7_EENS_8equal_toIS7_EELb1EEELi1ELb1EEC2B7v160006ENS_18__default_init_tagE, symObjAddr: 0x2AD0, symBinAddr: 0x1000069B0, symSize: 0x20 }
  - { offsetInCU: 0x28024, offset: 0x28024, size: 0x8, addend: 0x0, symName: __ZNSt3__122__unordered_map_hasherINS_12basic_stringIcNS_11char_traitsIcEENS_9allocatorIcEEEENS_17__hash_value_typeIS6_9TokenTypeEENS_4hashIS6_EENS_8equal_toIS6_EELb1EEC2B7v160006Ev, symObjAddr: 0x2AF0, symBinAddr: 0x1000069D0, symSize: 0x10 }
  - { offsetInCU: 0x2804E, offset: 0x2804E, size: 0x8, addend: 0x0, symName: __ZNSt3__117__compressed_pairIfNS_21__unordered_map_equalINS_12basic_stringIcNS_11char_traitsIcEENS_9allocatorIcEEEENS_17__hash_value_typeIS7_9TokenTypeEENS_8equal_toIS7_EENS_4hashIS7_EELb1EEEEC2B7v160006IfNS_18__default_init_tagEEEOT_OT0_, symObjAddr: 0x2B00, symBinAddr: 0x1000069E0, symSize: 0x40 }
  - { offsetInCU: 0x280A6, offset: 0x280A6, size: 0x8, addend: 0x0, symName: __ZNSt3__122__compressed_pair_elemIfLi0ELb0EEC2B7v160006IfvEEOT_, symObjAddr: 0x2B40, symBinAddr: 0x100006A20, symSize: 0x20 }
  - { offsetInCU: 0x280E8, offset: 0x280E8, size: 0x8, addend: 0x0, symName: __ZNSt3__122__compressed_pair_elemINS_21__unordered_map_equalINS_12basic_stringIcNS_11char_traitsIcEENS_9allocatorIcEEEENS_17__hash_value_typeIS7_9TokenTypeEENS_8equal_toIS7_EENS_4hashIS7_EELb1EEELi1ELb1EEC2B7v160006ENS_18__default_init_tagE, symObjAddr: 0x2B60, symBinAddr: 0x100006A40, symSize: 0x20 }
  - { offsetInCU: 0x2811D, offset: 0x2811D, size: 0x8, addend: 0x0, symName: __ZNSt3__121__unordered_map_equalINS_12basic_stringIcNS_11char_traitsIcEENS_9allocatorIcEEEENS_17__hash_value_typeIS6_9TokenTypeEENS_8equal_toIS6_EENS_4hashIS6_EELb1EEC2B7v160006Ev, symObjAddr: 0x2B80, symBinAddr: 0x100006A60, symSize: 0x10 }
  - { offsetInCU: 0x2815F, offset: 0x2815F, size: 0x8, addend: 0x0, symName: __ZNSt3__112__hash_tableINS_17__hash_value_typeINS_12basic_stringIcNS_11char_traitsIcEENS_9allocatorIcEEEE9TokenTypeEENS_22__unordered_map_hasherIS7_S9_NS_4hashIS7_EENS_8equal_toIS7_EELb1EEENS_21__unordered_map_equalIS7_S9_SE_SC_Lb1EEENS5_IS9_EEE25__emplace_unique_key_argsIS7_JRKNS_21piecewise_construct_tENS_5tupleIJOS7_EEENSO_IJEEEEEENS_4pairINS_15__hash_iteratorIPNS_11__hash_nodeIS9_PvEEEEbEERKT_DpOT0_, symObjAddr: 0x2B90, symBinAddr: 0x100006A70, symSize: 0x650 }
  - { offsetInCU: 0x28267, offset: 0x28267, size: 0x8, addend: 0x0, symName: __ZNKSt3__115__hash_iteratorIPNS_11__hash_nodeINS_17__hash_value_typeINS_12basic_stringIcNS_11char_traitsIcEENS_9allocatorIcEEEE9TokenTypeEEPvEEEptB7v160006Ev, symObjAddr: 0x3220, symBinAddr: 0x100007100, symSize: 0x30 }
  - { offsetInCU: 0x2828D, offset: 0x2828D, size: 0x8, addend: 0x0, symName: __ZNSt3__117__hash_value_typeINS_12basic_stringIcNS_11char_traitsIcEENS_9allocatorIcEEEE9TokenTypeE11__get_valueB7v160006Ev, symObjAddr: 0x3250, symBinAddr: 0x100007130, symSize: 0x20 }
  - { offsetInCU: 0x282B3, offset: 0x282B3, size: 0x8, addend: 0x0, symName: __ZNSt3__112__hash_tableINS_17__hash_value_typeINS_12basic_stringIcNS_11char_traitsIcEENS_9allocatorIcEEEE9TokenTypeEENS_22__unordered_map_hasherIS7_S9_NS_4hashIS7_EENS_8equal_toIS7_EELb1EEENS_21__unordered_map_equalIS7_S9_SE_SC_Lb1EEENS5_IS9_EEE13hash_functionB7v160006Ev, symObjAddr: 0x3270, symBinAddr: 0x100007150, symSize: 0x20 }
  - { offsetInCU: 0x282D9, offset: 0x282D9, size: 0x8, addend: 0x0, symName: __ZNKSt3__122__unordered_map_hasherINS_12basic_stringIcNS_11char_traitsIcEENS_9allocatorIcEEEENS_17__hash_value_typeIS6_9TokenTypeEENS_4hashIS6_EENS_8equal_toIS6_EELb1EEclB7v160006ERKS6_, symObjAddr: 0x3290, symBinAddr: 0x100007170, symSize: 0x30 }
  - { offsetInCU: 0x2830E, offset: 0x2830E, size: 0x8, addend: 0x0, symName: __ZNKSt3__112__hash_tableINS_17__hash_value_typeINS_12basic_stringIcNS_11char_traitsIcEENS_9allocatorIcEEEE9TokenTypeEENS_22__unordered_map_hasherIS7_S9_NS_4hashIS7_EENS_8equal_toIS7_EELb1EEENS_21__unordered_map_equalIS7_S9_SE_SC_Lb1EEENS5_IS9_EEE12bucket_countB7v160006Ev, symObjAddr: 0x32C0, symBinAddr: 0x1000071A0, symSize: 0x30 }
  - { offsetInCU: 0x28334, offset: 0x28334, size: 0x8, addend: 0x0, symName: __ZNKSt3__110unique_ptrIA_PNS_16__hash_node_baseIPNS_11__hash_nodeINS_17__hash_value_typeINS_12basic_stringIcNS_11char_traitsIcEENS_9allocatorIcEEEE9TokenTypeEEPvEEEENS_25__bucket_list_deallocatorINS7_ISG_EEEEEixB7v160006Em, symObjAddr: 0x3370, symBinAddr: 0x100007250, symSize: 0x30 }
  - { offsetInCU: 0x28369, offset: 0x28369, size: 0x8, addend: 0x0, symName: __ZNKSt3__116__hash_node_baseIPNS_11__hash_nodeINS_17__hash_value_typeINS_12basic_stringIcNS_11char_traitsIcEENS_9allocatorIcEEEE9TokenTypeEEPvEEE6__hashB7v160006Ev, symObjAddr: 0x33A0, symBinAddr: 0x100007280, symSize: 0x20 }
  - { offsetInCU: 0x2838F, offset: 0x2838F, size: 0x8, addend: 0x0, symName: __ZNSt3__112__hash_tableINS_17__hash_value_typeINS_12basic_stringIcNS_11char_traitsIcEENS_9allocatorIcEEEE9TokenTypeEENS_22__unordered_map_hasherIS7_S9_NS_4hashIS7_EENS_8equal_toIS7_EELb1EEENS_21__unordered_map_equalIS7_S9_SE_SC_Lb1EEENS5_IS9_EEE6key_eqB7v160006Ev, symObjAddr: 0x33C0, symBinAddr: 0x1000072A0, symSize: 0x20 }
  - { offsetInCU: 0x283B5, offset: 0x283B5, size: 0x8, addend: 0x0, symName: __ZNKSt3__121__unordered_map_equalINS_12basic_stringIcNS_11char_traitsIcEENS_9allocatorIcEEEENS_17__hash_value_typeIS6_9TokenTypeEENS_8equal_toIS6_EENS_4hashIS6_EELb1EEclB7v160006ERKS9_RKS6_, symObjAddr: 0x33E0, symBinAddr: 0x1000072C0, symSize: 0x40 }
  - { offsetInCU: 0x283F9, offset: 0x283F9, size: 0x8, addend: 0x0, symName: __ZNSt3__116__hash_node_baseIPNS_11__hash_nodeINS_17__hash_value_typeINS_12basic_stringIcNS_11char_traitsIcEENS_9allocatorIcEEEE9TokenTypeEEPvEEE8__upcastB7v160006Ev, symObjAddr: 0x3420, symBinAddr: 0x100007300, symSize: 0x20 }
  - { offsetInCU: 0x2841F, offset: 0x2841F, size: 0x8, addend: 0x0, symName: __ZNSt3__112__hash_tableINS_17__hash_value_typeINS_12basic_stringIcNS_11char_traitsIcEENS_9allocatorIcEEEE9TokenTypeEENS_22__unordered_map_hasherIS7_S9_NS_4hashIS7_EENS_8equal_toIS7_EELb1EEENS_21__unordered_map_equalIS7_S9_SE_SC_Lb1EEENS5_IS9_EEE21__construct_node_hashIRKNS_21piecewise_construct_tEJNS_5tupleIJOS7_EEENSO_IJEEEEEENS_10unique_ptrINS_11__hash_nodeIS9_PvEENS_22__hash_node_destructorINS5_ISV_EEEEEEmOT_DpOT0_, symObjAddr: 0x3440, symBinAddr: 0x100007320, symSize: 0x150 }
  - { offsetInCU: 0x284BB, offset: 0x284BB, size: 0x8, addend: 0x0, symName: __ZNSt3__112__hash_tableINS_17__hash_value_typeINS_12basic_stringIcNS_11char_traitsIcEENS_9allocatorIcEEEE9TokenTypeEENS_22__unordered_map_hasherIS7_S9_NS_4hashIS7_EENS_8equal_toIS7_EELb1EEENS_21__unordered_map_equalIS7_S9_SE_SC_Lb1EEENS5_IS9_EEE4sizeB7v160006Ev, symObjAddr: 0x3590, symBinAddr: 0x100007470, symSize: 0x20 }
  - { offsetInCU: 0x284E1, offset: 0x284E1, size: 0x8, addend: 0x0, symName: __ZNSt3__112__hash_tableINS_17__hash_value_typeINS_12basic_stringIcNS_11char_traitsIcEENS_9allocatorIcEEEE9TokenTypeEENS_22__unordered_map_hasherIS7_S9_NS_4hashIS7_EENS_8equal_toIS7_EELb1EEENS_21__unordered_map_equalIS7_S9_SE_SC_Lb1EEENS5_IS9_EEE15max_load_factorB7v160006Ev, symObjAddr: 0x35B0, symBinAddr: 0x100007490, symSize: 0x20 }
  - { offsetInCU: 0x28507, offset: 0x28507, size: 0x8, addend: 0x0, symName: __ZNSt3__112__hash_tableINS_17__hash_value_typeINS_12basic_stringIcNS_11char_traitsIcEENS_9allocatorIcEEEE9TokenTypeEENS_22__unordered_map_hasherIS7_S9_NS_4hashIS7_EENS_8equal_toIS7_EELb1EEENS_21__unordered_map_equalIS7_S9_SE_SC_Lb1EEENS5_IS9_EEE15__rehash_uniqueB7v160006Em, symObjAddr: 0x35D0, symBinAddr: 0x1000074B0, symSize: 0x30 }
  - { offsetInCU: 0x2853B, offset: 0x2853B, size: 0x8, addend: 0x0, symName: __Z4ceilB7v160006f, symObjAddr: 0x3670, symBinAddr: 0x100007550, symSize: 0x20 }
  - { offsetInCU: 0x2856A, offset: 0x2856A, size: 0x8, addend: 0x0, symName: __ZNSt3__117__compressed_pairINS_16__hash_node_baseIPNS_11__hash_nodeINS_17__hash_value_typeINS_12basic_stringIcNS_11char_traitsIcEENS_9allocatorIcEEEE9TokenTypeEEPvEEEENS7_ISD_EEE5firstB7v160006Ev, symObjAddr: 0x3690, symBinAddr: 0x100007570, symSize: 0x20 }
  - { offsetInCU: 0x28590, offset: 0x28590, size: 0x8, addend: 0x0, symName: __ZNSt3__116__hash_node_baseIPNS_11__hash_nodeINS_17__hash_value_typeINS_12basic_stringIcNS_11char_traitsIcEENS_9allocatorIcEEEE9TokenTypeEEPvEEE5__ptrB7v160006Ev, symObjAddr: 0x36B0, symBinAddr: 0x100007590, symSize: 0x20 }
  - { offsetInCU: 0x285B6, offset: 0x285B6, size: 0x8, addend: 0x0, symName: __ZNKSt3__110unique_ptrINS_11__hash_nodeINS_17__hash_value_typeINS_12basic_stringIcNS_11char_traitsIcEENS_9allocatorIcEEEE9TokenTypeEEPvEENS_22__hash_node_destructorINS6_ISC_EEEEEptB7v160006Ev, symObjAddr: 0x36D0, symBinAddr: 0x1000075B0, symSize: 0x20 }
  - { offsetInCU: 0x285DC, offset: 0x285DC, size: 0x8, addend: 0x0, symName: __ZNKSt3__110unique_ptrINS_11__hash_nodeINS_17__hash_value_typeINS_12basic_stringIcNS_11char_traitsIcEENS_9allocatorIcEEEE9TokenTypeEEPvEENS_22__hash_node_destructorINS6_ISC_EEEEE3getB7v160006Ev, symObjAddr: 0x36F0, symBinAddr: 0x1000075D0, symSize: 0x20 }
  - { offsetInCU: 0x28602, offset: 0x28602, size: 0x8, addend: 0x0, symName: __ZNSt3__110unique_ptrINS_11__hash_nodeINS_17__hash_value_typeINS_12basic_stringIcNS_11char_traitsIcEENS_9allocatorIcEEEE9TokenTypeEEPvEENS_22__hash_node_destructorINS6_ISC_EEEEE7releaseB7v160006Ev, symObjAddr: 0x3710, symBinAddr: 0x1000075F0, symSize: 0x40 }
  - { offsetInCU: 0x28637, offset: 0x28637, size: 0x8, addend: 0x0, symName: __ZNSt3__110unique_ptrINS_11__hash_nodeINS_17__hash_value_typeINS_12basic_stringIcNS_11char_traitsIcEENS_9allocatorIcEEEE9TokenTypeEEPvEENS_22__hash_node_destructorINS6_ISC_EEEEED1B7v160006Ev, symObjAddr: 0x3750, symBinAddr: 0x100007630, symSize: 0x20 }
  - { offsetInCU: 0x28661, offset: 0x28661, size: 0x8, addend: 0x0, symName: __ZNSt3__115__hash_iteratorIPNS_11__hash_nodeINS_17__hash_value_typeINS_12basic_stringIcNS_11char_traitsIcEENS_9allocatorIcEEEE9TokenTypeEEPvEEEC1B7v160006EPNS_16__hash_node_baseISD_EEPKv, symObjAddr: 0x3770, symBinAddr: 0x100007650, symSize: 0x30 }
  - { offsetInCU: 0x286B5, offset: 0x286B5, size: 0x8, addend: 0x0, symName: __ZNSt3__14pairINS_15__hash_iteratorIPNS_11__hash_nodeINS_17__hash_value_typeINS_12basic_stringIcNS_11char_traitsIcEENS_9allocatorIcEEEE9TokenTypeEEPvEEEEbEC1B7v160006ISF_RbLSC_0EEEOT_OT0_, symObjAddr: 0x37A0, symBinAddr: 0x100007680, symSize: 0x30 }
  - { offsetInCU: 0x28713, offset: 0x28713, size: 0x8, addend: 0x0, symName: __ZNSt3__117__compressed_pairImNS_22__unordered_map_hasherINS_12basic_stringIcNS_11char_traitsIcEENS_9allocatorIcEEEENS_17__hash_value_typeIS7_9TokenTypeEENS_4hashIS7_EENS_8equal_toIS7_EELb1EEEE6secondB7v160006Ev, symObjAddr: 0x37D0, symBinAddr: 0x1000076B0, symSize: 0x20 }
  - { offsetInCU: 0x28739, offset: 0x28739, size: 0x8, addend: 0x0, symName: __ZNSt3__122__compressed_pair_elemINS_22__unordered_map_hasherINS_12basic_stringIcNS_11char_traitsIcEENS_9allocatorIcEEEENS_17__hash_value_typeIS7_9TokenTypeEENS_4hashIS7_EENS_8equal_toIS7_EELb1EEELi1ELb1EE5__getB7v160006Ev, symObjAddr: 0x37F0, symBinAddr: 0x1000076D0, symSize: 0x10 }
  - { offsetInCU: 0x2875F, offset: 0x2875F, size: 0x8, addend: 0x0, symName: __ZNKSt3__113__string_hashIcNS_9allocatorIcEEEclERKNS_12basic_stringIcNS_11char_traitsIcEES2_EE, symObjAddr: 0x3800, symBinAddr: 0x1000076E0, symSize: 0x60 }
  - { offsetInCU: 0x28794, offset: 0x28794, size: 0x8, addend: 0x0, symName: __ZNKSt3__112basic_stringIcNS_11char_traitsIcEENS_9allocatorIcEEE4dataB7v160006Ev, symObjAddr: 0x38A0, symBinAddr: 0x100007780, symSize: 0x30 }
  - { offsetInCU: 0x287BA, offset: 0x287BA, size: 0x8, addend: 0x0, symName: __ZNKSt3__112basic_stringIcNS_11char_traitsIcEENS_9allocatorIcEEE4sizeB7v160006Ev, symObjAddr: 0x38D0, symBinAddr: 0x1000077B0, symSize: 0x50 }
  - { offsetInCU: 0x287E0, offset: 0x287E0, size: 0x8, addend: 0x0, symName: __ZNSt3__121__murmur2_or_cityhashImLm64EEclEPKvm, symObjAddr: 0x3920, symBinAddr: 0x100007800, symSize: 0x3D0 }
  - { offsetInCU: 0x28879, offset: 0x28879, size: 0x8, addend: 0x0, symName: __ZNSt3__121__murmur2_or_cityhashImLm64EE18__hash_len_0_to_16EPKcm, symObjAddr: 0x3CF0, symBinAddr: 0x100007BD0, symSize: 0x180 }
  - { offsetInCU: 0x28952, offset: 0x28952, size: 0x8, addend: 0x0, symName: __ZNSt3__121__murmur2_or_cityhashImLm64EE19__hash_len_17_to_32EPKcm, symObjAddr: 0x3E70, symBinAddr: 0x100007D50, symSize: 0x100 }
  - { offsetInCU: 0x289BB, offset: 0x289BB, size: 0x8, addend: 0x0, symName: __ZNSt3__121__murmur2_or_cityhashImLm64EE19__hash_len_33_to_64EPKcm, symObjAddr: 0x3F70, symBinAddr: 0x100007E50, symSize: 0x260 }
  - { offsetInCU: 0x28A6D, offset: 0x28A6D, size: 0x8, addend: 0x0, symName: __ZNSt3__121__murmur2_or_cityhashImLm64EE13__hash_len_16Emm, symObjAddr: 0x41F0, symBinAddr: 0x1000080D0, symSize: 0x90 }
  - { offsetInCU: 0x28AC8, offset: 0x28AC8, size: 0x8, addend: 0x0, symName: __ZNSt3__121__murmur2_or_cityhashImLm64EE29__weak_hash_len_32_with_seedsEPKcmm, symObjAddr: 0x4280, symBinAddr: 0x100008160, symSize: 0x90 }
  - { offsetInCU: 0x28B07, offset: 0x28B07, size: 0x8, addend: 0x0, symName: __ZNSt3__121__murmur2_or_cityhashImLm64EE8__rotateEmi, symObjAddr: 0x4310, symBinAddr: 0x1000081F0, symSize: 0x50 }
  - { offsetInCU: 0x28B38, offset: 0x28B38, size: 0x8, addend: 0x0, symName: __ZNSt3__14pairImmEaSB7v160006EOS1_, symObjAddr: 0x4360, symBinAddr: 0x100008240, symSize: 0x30 }
  - { offsetInCU: 0x28B6D, offset: 0x28B6D, size: 0x8, addend: 0x0, symName: __ZNSt3__121__murmur2_or_cityhashImLm64EE11__shift_mixEm, symObjAddr: 0x43D0, symBinAddr: 0x1000082B0, symSize: 0x20 }
  - { offsetInCU: 0x28B90, offset: 0x28B90, size: 0x8, addend: 0x0, symName: __ZNSt3__121__murmur2_or_cityhashImLm64EE22__rotate_by_at_least_1Emi, symObjAddr: 0x43F0, symBinAddr: 0x1000082D0, symSize: 0x30 }
  - { offsetInCU: 0x28BC1, offset: 0x28BC1, size: 0x8, addend: 0x0, symName: __ZNSt3__121__murmur2_or_cityhashImLm64EE29__weak_hash_len_32_with_seedsEmmmmmm, symObjAddr: 0x4440, symBinAddr: 0x100008320, symSize: 0xD0 }
  - { offsetInCU: 0x28C3F, offset: 0x28C3F, size: 0x8, addend: 0x0, symName: __ZNSt3__14pairImmEC1B7v160006ImmLPv0EEEOT_OT0_, symObjAddr: 0x4510, symBinAddr: 0x1000083F0, symSize: 0x30 }
  - { offsetInCU: 0x28C9D, offset: 0x28C9D, size: 0x8, addend: 0x0, symName: __ZNSt3__14pairImmEC2B7v160006ImmLPv0EEEOT_OT0_, symObjAddr: 0x4540, symBinAddr: 0x100008420, symSize: 0x30 }
  - { offsetInCU: 0x28CFB, offset: 0x28CFB, size: 0x8, addend: 0x0, symName: __ZNKSt3__112basic_stringIcNS_11char_traitsIcEENS_9allocatorIcEEE13__get_pointerB7v160006Ev, symObjAddr: 0x4580, symBinAddr: 0x100008460, symSize: 0x50 }
  - { offsetInCU: 0x28D21, offset: 0x28D21, size: 0x8, addend: 0x0, symName: __ZNKSt3__112basic_stringIcNS_11char_traitsIcEENS_9allocatorIcEEE9__is_longB7v160006Ev, symObjAddr: 0x45D0, symBinAddr: 0x1000084B0, symSize: 0x30 }
  - { offsetInCU: 0x28D47, offset: 0x28D47, size: 0x8, addend: 0x0, symName: __ZNKSt3__112basic_stringIcNS_11char_traitsIcEENS_9allocatorIcEEE18__get_long_pointerB7v160006Ev, symObjAddr: 0x4600, symBinAddr: 0x1000084E0, symSize: 0x20 }
  - { offsetInCU: 0x28D6D, offset: 0x28D6D, size: 0x8, addend: 0x0, symName: __ZNKSt3__112basic_stringIcNS_11char_traitsIcEENS_9allocatorIcEEE19__get_short_pointerB7v160006Ev, symObjAddr: 0x4620, symBinAddr: 0x100008500, symSize: 0x30 }
  - { offsetInCU: 0x28D93, offset: 0x28D93, size: 0x8, addend: 0x0, symName: __ZNKSt3__117__compressed_pairINS_12basic_stringIcNS_11char_traitsIcEENS_9allocatorIcEEE5__repES5_E5firstB7v160006Ev, symObjAddr: 0x4650, symBinAddr: 0x100008530, symSize: 0x20 }
  - { offsetInCU: 0x28DB9, offset: 0x28DB9, size: 0x8, addend: 0x0, symName: __ZNKSt3__122__compressed_pair_elemINS_12basic_stringIcNS_11char_traitsIcEENS_9allocatorIcEEE5__repELi0ELb0EE5__getB7v160006Ev, symObjAddr: 0x4670, symBinAddr: 0x100008550, symSize: 0x10 }
  - { offsetInCU: 0x28DDF, offset: 0x28DDF, size: 0x8, addend: 0x0, symName: __ZNSt3__114pointer_traitsIPKcE10pointer_toB7v160006ERS1_, symObjAddr: 0x4680, symBinAddr: 0x100008560, symSize: 0x10 }
  - { offsetInCU: 0x28E02, offset: 0x28E02, size: 0x8, addend: 0x0, symName: __ZNKSt3__112basic_stringIcNS_11char_traitsIcEENS_9allocatorIcEEE15__get_long_sizeB7v160006Ev, symObjAddr: 0x4690, symBinAddr: 0x100008570, symSize: 0x20 }
  - { offsetInCU: 0x28E28, offset: 0x28E28, size: 0x8, addend: 0x0, symName: __ZNKSt3__112basic_stringIcNS_11char_traitsIcEENS_9allocatorIcEEE16__get_short_sizeB7v160006Ev, symObjAddr: 0x46B0, symBinAddr: 0x100008590, symSize: 0x30 }
  - { offsetInCU: 0x28E4E, offset: 0x28E4E, size: 0x8, addend: 0x0, symName: __ZNKSt3__110unique_ptrIA_PNS_16__hash_node_baseIPNS_11__hash_nodeINS_17__hash_value_typeINS_12basic_stringIcNS_11char_traitsIcEENS_9allocatorIcEEEE9TokenTypeEEPvEEEENS_25__bucket_list_deallocatorINS7_ISG_EEEEE11get_deleterB7v160006Ev, symObjAddr: 0x46E0, symBinAddr: 0x1000085C0, symSize: 0x20 }
  - { offsetInCU: 0x28E74, offset: 0x28E74, size: 0x8, addend: 0x0, symName: __ZNKSt3__125__bucket_list_deallocatorINS_9allocatorIPNS_16__hash_node_baseIPNS_11__hash_nodeINS_17__hash_value_typeINS_12basic_stringIcNS_11char_traitsIcEENS1_IcEEEE9TokenTypeEEPvEEEEEEE4sizeB7v160006Ev, symObjAddr: 0x4700, symBinAddr: 0x1000085E0, symSize: 0x20 }
  - { offsetInCU: 0x28E9A, offset: 0x28E9A, size: 0x8, addend: 0x0, symName: __ZNKSt3__117__compressed_pairIPPNS_16__hash_node_baseIPNS_11__hash_nodeINS_17__hash_value_typeINS_12basic_stringIcNS_11char_traitsIcEENS_9allocatorIcEEEE9TokenTypeEEPvEEEENS_25__bucket_list_deallocatorINS7_ISG_EEEEE6secondB7v160006Ev, symObjAddr: 0x4720, symBinAddr: 0x100008600, symSize: 0x20 }
  - { offsetInCU: 0x28EC0, offset: 0x28EC0, size: 0x8, addend: 0x0, symName: __ZNKSt3__122__compressed_pair_elemINS_25__bucket_list_deallocatorINS_9allocatorIPNS_16__hash_node_baseIPNS_11__hash_nodeINS_17__hash_value_typeINS_12basic_stringIcNS_11char_traitsIcEENS2_IcEEEE9TokenTypeEEPvEEEEEEEELi1ELb0EE5__getB7v160006Ev, symObjAddr: 0x4740, symBinAddr: 0x100008620, symSize: 0x10 }
  - { offsetInCU: 0x28EE6, offset: 0x28EE6, size: 0x8, addend: 0x0, symName: __ZNKSt3__117__compressed_pairImNS_9allocatorIPNS_16__hash_node_baseIPNS_11__hash_nodeINS_17__hash_value_typeINS_12basic_stringIcNS_11char_traitsIcEENS1_IcEEEE9TokenTypeEEPvEEEEEEE5firstB7v160006Ev, symObjAddr: 0x4750, symBinAddr: 0x100008630, symSize: 0x20 }
  - { offsetInCU: 0x28F0C, offset: 0x28F0C, size: 0x8, addend: 0x0, symName: __ZNKSt3__122__compressed_pair_elemImLi0ELb0EE5__getB7v160006Ev, symObjAddr: 0x4770, symBinAddr: 0x100008650, symSize: 0x10 }
  - { offsetInCU: 0x28F32, offset: 0x28F32, size: 0x8, addend: 0x0, symName: __ZNKSt3__117__compressed_pairIPPNS_16__hash_node_baseIPNS_11__hash_nodeINS_17__hash_value_typeINS_12basic_stringIcNS_11char_traitsIcEENS_9allocatorIcEEEE9TokenTypeEEPvEEEENS_25__bucket_list_deallocatorINS7_ISG_EEEEE5firstB7v160006Ev, symObjAddr: 0x4780, symBinAddr: 0x100008660, symSize: 0x20 }
  - { offsetInCU: 0x28F58, offset: 0x28F58, size: 0x8, addend: 0x0, symName: __ZNKSt3__122__compressed_pair_elemIPPNS_16__hash_node_baseIPNS_11__hash_nodeINS_17__hash_value_typeINS_12basic_stringIcNS_11char_traitsIcEENS_9allocatorIcEEEE9TokenTypeEEPvEEEELi0ELb0EE5__getB7v160006Ev, symObjAddr: 0x47A0, symBinAddr: 0x100008680, symSize: 0x10 }
  - { offsetInCU: 0x28F7E, offset: 0x28F7E, size: 0x8, addend: 0x0, symName: __ZNSt3__117__compressed_pairIfNS_21__unordered_map_equalINS_12basic_stringIcNS_11char_traitsIcEENS_9allocatorIcEEEENS_17__hash_value_typeIS7_9TokenTypeEENS_8equal_toIS7_EENS_4hashIS7_EELb1EEEE6secondB7v160006Ev, symObjAddr: 0x47B0, symBinAddr: 0x100008690, symSize: 0x20 }
  - { offsetInCU: 0x28FA4, offset: 0x28FA4, size: 0x8, addend: 0x0, symName: __ZNSt3__122__compressed_pair_elemINS_21__unordered_map_equalINS_12basic_stringIcNS_11char_traitsIcEENS_9allocatorIcEEEENS_17__hash_value_typeIS7_9TokenTypeEENS_8equal_toIS7_EENS_4hashIS7_EELb1EEELi1ELb1EE5__getB7v160006Ev, symObjAddr: 0x47D0, symBinAddr: 0x1000086B0, symSize: 0x10 }
  - { offsetInCU: 0x28FCA, offset: 0x28FCA, size: 0x8, addend: 0x0, symName: __ZNKSt3__18equal_toINS_12basic_stringIcNS_11char_traitsIcEENS_9allocatorIcEEEEEclB7v160006ERKS6_S9_, symObjAddr: 0x47E0, symBinAddr: 0x1000086C0, symSize: 0x30 }
  - { offsetInCU: 0x2900E, offset: 0x2900E, size: 0x8, addend: 0x0, symName: __ZNKSt3__117__hash_value_typeINS_12basic_stringIcNS_11char_traitsIcEENS_9allocatorIcEEEE9TokenTypeE11__get_valueB7v160006Ev, symObjAddr: 0x4810, symBinAddr: 0x1000086F0, symSize: 0x20 }
  - { offsetInCU: 0x29034, offset: 0x29034, size: 0x8, addend: 0x0, symName: __ZNSt3__111char_traitsIcE7compareEPKcS3_m, symObjAddr: 0x4940, symBinAddr: 0x100008820, symSize: 0x60 }
  - { offsetInCU: 0x29073, offset: 0x29073, size: 0x8, addend: 0x0, symName: __ZNSt3__114pointer_traitsIPNS_16__hash_node_baseIPNS_11__hash_nodeINS_17__hash_value_typeINS_12basic_stringIcNS_11char_traitsIcEENS_9allocatorIcEEEE9TokenTypeEEPvEEEEE10pointer_toB7v160006ERSF_, symObjAddr: 0x4A00, symBinAddr: 0x1000088E0, symSize: 0x10 }
  - { offsetInCU: 0x29096, offset: 0x29096, size: 0x8, addend: 0x0, symName: __ZNSt3__112__hash_tableINS_17__hash_value_typeINS_12basic_stringIcNS_11char_traitsIcEENS_9allocatorIcEEEE9TokenTypeEENS_22__unordered_map_hasherIS7_S9_NS_4hashIS7_EENS_8equal_toIS7_EELb1EEENS_21__unordered_map_equalIS7_S9_SE_SC_Lb1EEENS5_IS9_EEE12__node_allocB7v160006Ev, symObjAddr: 0x4A10, symBinAddr: 0x1000088F0, symSize: 0x20 }
  - { offsetInCU: 0x290BC, offset: 0x290BC, size: 0x8, addend: 0x0, symName: __ZNSt3__116allocator_traitsINS_9allocatorINS_11__hash_nodeINS_17__hash_value_typeINS_12basic_stringIcNS_11char_traitsIcEENS1_IcEEEE9TokenTypeEEPvEEEEE8allocateB7v160006ERSD_m, symObjAddr: 0x4A30, symBinAddr: 0x100008910, symSize: 0x30 }
  - { offsetInCU: 0x290EF, offset: 0x290EF, size: 0x8, addend: 0x0, symName: __ZNSt3__122__hash_node_destructorINS_9allocatorINS_11__hash_nodeINS_17__hash_value_typeINS_12basic_stringIcNS_11char_traitsIcEENS1_IcEEEE9TokenTypeEEPvEEEEEC1B7v160006ERSD_b, symObjAddr: 0x4A60, symBinAddr: 0x100008940, symSize: 0x40 }
  - { offsetInCU: 0x2913D, offset: 0x2913D, size: 0x8, addend: 0x0, symName: __ZNSt3__110unique_ptrINS_11__hash_nodeINS_17__hash_value_typeINS_12basic_stringIcNS_11char_traitsIcEENS_9allocatorIcEEEE9TokenTypeEEPvEENS_22__hash_node_destructorINS6_ISC_EEEEEC1B7v160006ILb1EvEEPSC_NS_16__dependent_typeINS_27__unique_ptr_deleter_sfinaeISF_EEXT_EE20__good_rval_ref_typeE, symObjAddr: 0x4AA0, symBinAddr: 0x100008980, symSize: 0x30 }
  - { offsetInCU: 0x2918E, offset: 0x2918E, size: 0x8, addend: 0x0, symName: __ZNSt3__116allocator_traitsINS_9allocatorINS_11__hash_nodeINS_17__hash_value_typeINS_12basic_stringIcNS_11char_traitsIcEENS1_IcEEEE9TokenTypeEEPvEEEEE9constructB7v160006INS_4pairIKS8_S9_EEJRKNS_21piecewise_construct_tENS_5tupleIJOS8_EEENSM_IJEEEEvEEvRSD_PT_DpOT0_, symObjAddr: 0x4AD0, symBinAddr: 0x1000089B0, symSize: 0x40 }
  - { offsetInCU: 0x2920D, offset: 0x2920D, size: 0x8, addend: 0x0, symName: __ZNSt3__122__hash_key_value_typesINS_17__hash_value_typeINS_12basic_stringIcNS_11char_traitsIcEENS_9allocatorIcEEEE9TokenTypeEEE9__get_ptrB7v160006ERS9_, symObjAddr: 0x4B10, symBinAddr: 0x1000089F0, symSize: 0x20 }
  - { offsetInCU: 0x29230, offset: 0x29230, size: 0x8, addend: 0x0, symName: __ZNSt3__110unique_ptrINS_11__hash_nodeINS_17__hash_value_typeINS_12basic_stringIcNS_11char_traitsIcEENS_9allocatorIcEEEE9TokenTypeEEPvEENS_22__hash_node_destructorINS6_ISC_EEEEE11get_deleterB7v160006Ev, symObjAddr: 0x4B30, symBinAddr: 0x100008A10, symSize: 0x20 }
  - { offsetInCU: 0x29256, offset: 0x29256, size: 0x8, addend: 0x0, symName: __ZNSt3__117__compressed_pairINS_16__hash_node_baseIPNS_11__hash_nodeINS_17__hash_value_typeINS_12basic_stringIcNS_11char_traitsIcEENS_9allocatorIcEEEE9TokenTypeEEPvEEEENS7_ISD_EEE6secondB7v160006Ev, symObjAddr: 0x4B50, symBinAddr: 0x100008A30, symSize: 0x20 }
  - { offsetInCU: 0x2927C, offset: 0x2927C, size: 0x8, addend: 0x0, symName: __ZNSt3__122__compressed_pair_elemINS_9allocatorINS_11__hash_nodeINS_17__hash_value_typeINS_12basic_stringIcNS_11char_traitsIcEENS1_IcEEEE9TokenTypeEEPvEEEELi1ELb1EE5__getB7v160006Ev, symObjAddr: 0x4B70, symBinAddr: 0x100008A50, symSize: 0x10 }
  - { offsetInCU: 0x292A2, offset: 0x292A2, size: 0x8, addend: 0x0, symName: __ZNSt3__19allocatorINS_11__hash_nodeINS_17__hash_value_typeINS_12basic_stringIcNS_11char_traitsIcEENS0_IcEEEE9TokenTypeEEPvEEE8allocateB7v160006Em, symObjAddr: 0x4B80, symBinAddr: 0x100008A60, symSize: 0x50 }
  - { offsetInCU: 0x292E1, offset: 0x292E1, size: 0x8, addend: 0x0, symName: __ZNSt3__116allocator_traitsINS_9allocatorINS_11__hash_nodeINS_17__hash_value_typeINS_12basic_stringIcNS_11char_traitsIcEENS1_IcEEEE9TokenTypeEEPvEEEEE8max_sizeB7v160006ISD_vEEmRKSD_, symObjAddr: 0x4BD0, symBinAddr: 0x100008AB0, symSize: 0x20 }
  - { offsetInCU: 0x2930F, offset: 0x2930F, size: 0x8, addend: 0x0, symName: __ZNKSt3__19allocatorINS_11__hash_nodeINS_17__hash_value_typeINS_12basic_stringIcNS_11char_traitsIcEENS0_IcEEEE9TokenTypeEEPvEEE8max_sizeB7v160006Ev, symObjAddr: 0x4C90, symBinAddr: 0x100008B70, symSize: 0x20 }
  - { offsetInCU: 0x29335, offset: 0x29335, size: 0x8, addend: 0x0, symName: __ZNSt3__122__hash_node_destructorINS_9allocatorINS_11__hash_nodeINS_17__hash_value_typeINS_12basic_stringIcNS_11char_traitsIcEENS1_IcEEEE9TokenTypeEEPvEEEEEC2B7v160006ERSD_b, symObjAddr: 0x4D20, symBinAddr: 0x100008C00, symSize: 0x30 }
  - { offsetInCU: 0x2937D, offset: 0x2937D, size: 0x8, addend: 0x0, symName: __ZNSt3__110unique_ptrINS_11__hash_nodeINS_17__hash_value_typeINS_12basic_stringIcNS_11char_traitsIcEENS_9allocatorIcEEEE9TokenTypeEEPvEENS_22__hash_node_destructorINS6_ISC_EEEEEC2B7v160006ILb1EvEEPSC_NS_16__dependent_typeINS_27__unique_ptr_deleter_sfinaeISF_EEXT_EE20__good_rval_ref_typeE, symObjAddr: 0x4D50, symBinAddr: 0x100008C30, symSize: 0x40 }
  - { offsetInCU: 0x293CE, offset: 0x293CE, size: 0x8, addend: 0x0, symName: __ZNSt3__117__compressed_pairIPNS_11__hash_nodeINS_17__hash_value_typeINS_12basic_stringIcNS_11char_traitsIcEENS_9allocatorIcEEEE9TokenTypeEEPvEENS_22__hash_node_destructorINS6_ISC_EEEEEC1B7v160006IRSD_SG_EEOT_OT0_, symObjAddr: 0x4D90, symBinAddr: 0x100008C70, symSize: 0x30 }
  - { offsetInCU: 0x29426, offset: 0x29426, size: 0x8, addend: 0x0, symName: __ZNSt3__117__compressed_pairIPNS_11__hash_nodeINS_17__hash_value_typeINS_12basic_stringIcNS_11char_traitsIcEENS_9allocatorIcEEEE9TokenTypeEEPvEENS_22__hash_node_destructorINS6_ISC_EEEEEC2B7v160006IRSD_SG_EEOT_OT0_, symObjAddr: 0x4DC0, symBinAddr: 0x100008CA0, symSize: 0x40 }
  - { offsetInCU: 0x2947E, offset: 0x2947E, size: 0x8, addend: 0x0, symName: __ZNSt3__122__compressed_pair_elemIPNS_11__hash_nodeINS_17__hash_value_typeINS_12basic_stringIcNS_11char_traitsIcEENS_9allocatorIcEEEE9TokenTypeEEPvEELi0ELb0EEC2B7v160006IRSD_vEEOT_, symObjAddr: 0x4E00, symBinAddr: 0x100008CE0, symSize: 0x20 }
  - { offsetInCU: 0x294C0, offset: 0x294C0, size: 0x8, addend: 0x0, symName: __ZNSt3__122__compressed_pair_elemINS_22__hash_node_destructorINS_9allocatorINS_11__hash_nodeINS_17__hash_value_typeINS_12basic_stringIcNS_11char_traitsIcEENS2_IcEEEE9TokenTypeEEPvEEEEEELi1ELb0EEC2B7v160006ISF_vEEOT_, symObjAddr: 0x4E20, symBinAddr: 0x100008D00, symSize: 0x30 }
  - { offsetInCU: 0x29502, offset: 0x29502, size: 0x8, addend: 0x0, symName: __ZNSt3__19allocatorINS_11__hash_nodeINS_17__hash_value_typeINS_12basic_stringIcNS_11char_traitsIcEENS0_IcEEEE9TokenTypeEEPvEEE9constructB7v160006INS_4pairIKS7_S8_EEJRKNS_21piecewise_construct_tENS_5tupleIJOS7_EEENSK_IJEEEEEEvPT_DpOT0_, symObjAddr: 0x4E50, symBinAddr: 0x100008D30, symSize: 0x40 }
  - { offsetInCU: 0x2957E, offset: 0x2957E, size: 0x8, addend: 0x0, symName: __ZNSt3__14pairIKNS_12basic_stringIcNS_11char_traitsIcEENS_9allocatorIcEEEE9TokenTypeEC1B7v160006IJOS6_EJEEENS_21piecewise_construct_tENS_5tupleIJDpT_EEENSD_IJDpT0_EEE, symObjAddr: 0x4E90, symBinAddr: 0x100008D70, symSize: 0x40 }
  - { offsetInCU: 0x295E5, offset: 0x295E5, size: 0x8, addend: 0x0, symName: __ZNSt3__14pairIKNS_12basic_stringIcNS_11char_traitsIcEENS_9allocatorIcEEEE9TokenTypeEC1B7v160006IJOS6_EJEJLm0EEJEEENS_21piecewise_construct_tERNS_5tupleIJDpT_EEERNSD_IJDpT0_EEENS_15__tuple_indicesIJXspT1_EEEENSM_IJXspT2_EEEE, symObjAddr: 0x4ED0, symBinAddr: 0x100008DB0, symSize: 0x30 }
  - { offsetInCU: 0x29675, offset: 0x29675, size: 0x8, addend: 0x0, symName: __ZNSt3__14pairIKNS_12basic_stringIcNS_11char_traitsIcEENS_9allocatorIcEEEE9TokenTypeEC2B7v160006IJOS6_EJEJLm0EEJEEENS_21piecewise_construct_tERNS_5tupleIJDpT_EEERNSD_IJDpT0_EEENS_15__tuple_indicesIJXspT1_EEEENSM_IJXspT2_EEEE, symObjAddr: 0x4F00, symBinAddr: 0x100008DE0, symSize: 0x50 }
  - { offsetInCU: 0x29705, offset: 0x29705, size: 0x8, addend: 0x0, symName: __ZNSt3__112basic_stringIcNS_11char_traitsIcEENS_9allocatorIcEEEC1B7v160006EOS5_, symObjAddr: 0x4F70, symBinAddr: 0x100008E50, symSize: 0x30 }
  - { offsetInCU: 0x2973E, offset: 0x2973E, size: 0x8, addend: 0x0, symName: __ZNSt3__112__tuple_leafILm0EONS_12basic_stringIcNS_11char_traitsIcEENS_9allocatorIcEEEELb0EE3getB7v160006Ev, symObjAddr: 0x4FA0, symBinAddr: 0x100008E80, symSize: 0x20 }
  - { offsetInCU: 0x29764, offset: 0x29764, size: 0x8, addend: 0x0, symName: __ZNSt3__112basic_stringIcNS_11char_traitsIcEENS_9allocatorIcEEEC2B7v160006EOS5_, symObjAddr: 0x4FC0, symBinAddr: 0x100008EA0, symSize: 0x90 }
  - { offsetInCU: 0x2979D, offset: 0x2979D, size: 0x8, addend: 0x0, symName: __ZNSt3__112basic_stringIcNS_11char_traitsIcEENS_9allocatorIcEEE14__default_initB7v160006Ev, symObjAddr: 0x5050, symBinAddr: 0x100008F30, symSize: 0x50 }
  - { offsetInCU: 0x297C3, offset: 0x297C3, size: 0x8, addend: 0x0, symName: __ZNSt3__117__compressed_pairINS_12basic_stringIcNS_11char_traitsIcEENS_9allocatorIcEEE5__repES5_E5firstB7v160006Ev, symObjAddr: 0x50C0, symBinAddr: 0x100008FA0, symSize: 0x20 }
  - { offsetInCU: 0x297E9, offset: 0x297E9, size: 0x8, addend: 0x0, symName: __ZNSt3__122__compressed_pair_elemINS_12basic_stringIcNS_11char_traitsIcEENS_9allocatorIcEEE5__repELi0ELb0EE5__getB7v160006Ev, symObjAddr: 0x50E0, symBinAddr: 0x100008FC0, symSize: 0x10 }
  - { offsetInCU: 0x2980F, offset: 0x2980F, size: 0x8, addend: 0x0, symName: __ZNSt3__117__compressed_pairIPNS_11__hash_nodeINS_17__hash_value_typeINS_12basic_stringIcNS_11char_traitsIcEENS_9allocatorIcEEEE9TokenTypeEEPvEENS_22__hash_node_destructorINS6_ISC_EEEEE6secondB7v160006Ev, symObjAddr: 0x50F0, symBinAddr: 0x100008FD0, symSize: 0x20 }
  - { offsetInCU: 0x29835, offset: 0x29835, size: 0x8, addend: 0x0, symName: __ZNSt3__122__compressed_pair_elemINS_22__hash_node_destructorINS_9allocatorINS_11__hash_nodeINS_17__hash_value_typeINS_12basic_stringIcNS_11char_traitsIcEENS2_IcEEEE9TokenTypeEEPvEEEEEELi1ELb0EE5__getB7v160006Ev, symObjAddr: 0x5110, symBinAddr: 0x100008FF0, symSize: 0x10 }
  - { offsetInCU: 0x2985B, offset: 0x2985B, size: 0x8, addend: 0x0, symName: __ZNSt3__117__compressed_pairImNS_22__unordered_map_hasherINS_12basic_stringIcNS_11char_traitsIcEENS_9allocatorIcEEEENS_17__hash_value_typeIS7_9TokenTypeEENS_4hashIS7_EENS_8equal_toIS7_EELb1EEEE5firstB7v160006Ev, symObjAddr: 0x5120, symBinAddr: 0x100009000, symSize: 0x20 }
  - { offsetInCU: 0x29881, offset: 0x29881, size: 0x8, addend: 0x0, symName: __ZNSt3__122__compressed_pair_elemImLi0ELb0EE5__getB7v160006Ev, symObjAddr: 0x5140, symBinAddr: 0x100009020, symSize: 0x10 }
  - { offsetInCU: 0x298A7, offset: 0x298A7, size: 0x8, addend: 0x0, symName: __ZNSt3__117__compressed_pairIfNS_21__unordered_map_equalINS_12basic_stringIcNS_11char_traitsIcEENS_9allocatorIcEEEENS_17__hash_value_typeIS7_9TokenTypeEENS_8equal_toIS7_EENS_4hashIS7_EELb1EEEE5firstB7v160006Ev, symObjAddr: 0x5150, symBinAddr: 0x100009030, symSize: 0x20 }
  - { offsetInCU: 0x298CD, offset: 0x298CD, size: 0x8, addend: 0x0, symName: __ZNSt3__122__compressed_pair_elemIfLi0ELb0EE5__getB7v160006Ev, symObjAddr: 0x5170, symBinAddr: 0x100009050, symSize: 0x10 }
  - { offsetInCU: 0x298F3, offset: 0x298F3, size: 0x8, addend: 0x0, symName: __ZNSt3__112__hash_tableINS_17__hash_value_typeINS_12basic_stringIcNS_11char_traitsIcEENS_9allocatorIcEEEE9TokenTypeEENS_22__unordered_map_hasherIS7_S9_NS_4hashIS7_EENS_8equal_toIS7_EELb1EEENS_21__unordered_map_equalIS7_S9_SE_SC_Lb1EEENS5_IS9_EEE8__rehashILb1EEEvm, symObjAddr: 0x5180, symBinAddr: 0x100009060, symSize: 0x230 }
  - { offsetInCU: 0x29943, offset: 0x29943, size: 0x8, addend: 0x0, symName: __ZNSt3__112__hash_tableINS_17__hash_value_typeINS_12basic_stringIcNS_11char_traitsIcEENS_9allocatorIcEEEE9TokenTypeEENS_22__unordered_map_hasherIS7_S9_NS_4hashIS7_EENS_8equal_toIS7_EELb1EEENS_21__unordered_map_equalIS7_S9_SE_SC_Lb1EEENS5_IS9_EEE11__do_rehashILb1EEEvm, symObjAddr: 0x53B0, symBinAddr: 0x100009290, symSize: 0x260 }
  - { offsetInCU: 0x29A26, offset: 0x29A26, size: 0x8, addend: 0x0, symName: __ZNSt3__110unique_ptrIA_PNS_16__hash_node_baseIPNS_11__hash_nodeINS_17__hash_value_typeINS_12basic_stringIcNS_11char_traitsIcEENS_9allocatorIcEEEE9TokenTypeEEPvEEEENS_25__bucket_list_deallocatorINS7_ISG_EEEEE11get_deleterB7v160006Ev, symObjAddr: 0x5680, symBinAddr: 0x100009560, symSize: 0x20 }
  - { offsetInCU: 0x29A4C, offset: 0x29A4C, size: 0x8, addend: 0x0, symName: __ZNSt3__125__bucket_list_deallocatorINS_9allocatorIPNS_16__hash_node_baseIPNS_11__hash_nodeINS_17__hash_value_typeINS_12basic_stringIcNS_11char_traitsIcEENS1_IcEEEE9TokenTypeEEPvEEEEEEE7__allocB7v160006Ev, symObjAddr: 0x56A0, symBinAddr: 0x100009580, symSize: 0x20 }
  - { offsetInCU: 0x29A72, offset: 0x29A72, size: 0x8, addend: 0x0, symName: __ZNSt3__110unique_ptrIA_PNS_16__hash_node_baseIPNS_11__hash_nodeINS_17__hash_value_typeINS_12basic_stringIcNS_11char_traitsIcEENS_9allocatorIcEEEE9TokenTypeEEPvEEEENS_25__bucket_list_deallocatorINS7_ISG_EEEEE5resetB7v160006IPSG_EENS_9enable_ifIXsr28_CheckArrayPointerConversionIT_EE5valueEvE4typeESP_, symObjAddr: 0x56C0, symBinAddr: 0x1000095A0, symSize: 0x70 }
  - { offsetInCU: 0x29ABF, offset: 0x29ABF, size: 0x8, addend: 0x0, symName: __ZNSt3__116allocator_traitsINS_9allocatorIPNS_16__hash_node_baseIPNS_11__hash_nodeINS_17__hash_value_typeINS_12basic_stringIcNS_11char_traitsIcEENS1_IcEEEE9TokenTypeEEPvEEEEEEE8allocateB7v160006ERSH_m, symObjAddr: 0x5730, symBinAddr: 0x100009610, symSize: 0x30 }
  - { offsetInCU: 0x29AF2, offset: 0x29AF2, size: 0x8, addend: 0x0, symName: __ZNSt3__125__bucket_list_deallocatorINS_9allocatorIPNS_16__hash_node_baseIPNS_11__hash_nodeINS_17__hash_value_typeINS_12basic_stringIcNS_11char_traitsIcEENS1_IcEEEE9TokenTypeEEPvEEEEEEE4sizeB7v160006Ev, symObjAddr: 0x5760, symBinAddr: 0x100009640, symSize: 0x20 }
  - { offsetInCU: 0x29B18, offset: 0x29B18, size: 0x8, addend: 0x0, symName: __ZNSt3__117__compressed_pairIPPNS_16__hash_node_baseIPNS_11__hash_nodeINS_17__hash_value_typeINS_12basic_stringIcNS_11char_traitsIcEENS_9allocatorIcEEEE9TokenTypeEEPvEEEENS_25__bucket_list_deallocatorINS7_ISG_EEEEE6secondB7v160006Ev, symObjAddr: 0x5780, symBinAddr: 0x100009660, symSize: 0x20 }
  - { offsetInCU: 0x29B3E, offset: 0x29B3E, size: 0x8, addend: 0x0, symName: __ZNSt3__122__compressed_pair_elemINS_25__bucket_list_deallocatorINS_9allocatorIPNS_16__hash_node_baseIPNS_11__hash_nodeINS_17__hash_value_typeINS_12basic_stringIcNS_11char_traitsIcEENS2_IcEEEE9TokenTypeEEPvEEEEEEEELi1ELb0EE5__getB7v160006Ev, symObjAddr: 0x57A0, symBinAddr: 0x100009680, symSize: 0x10 }
  - { offsetInCU: 0x29B64, offset: 0x29B64, size: 0x8, addend: 0x0, symName: __ZNSt3__117__compressed_pairImNS_9allocatorIPNS_16__hash_node_baseIPNS_11__hash_nodeINS_17__hash_value_typeINS_12basic_stringIcNS_11char_traitsIcEENS1_IcEEEE9TokenTypeEEPvEEEEEEE6secondB7v160006Ev, symObjAddr: 0x57B0, symBinAddr: 0x100009690, symSize: 0x20 }
  - { offsetInCU: 0x29B8A, offset: 0x29B8A, size: 0x8, addend: 0x0, symName: __ZNSt3__122__compressed_pair_elemINS_9allocatorIPNS_16__hash_node_baseIPNS_11__hash_nodeINS_17__hash_value_typeINS_12basic_stringIcNS_11char_traitsIcEENS1_IcEEEE9TokenTypeEEPvEEEEEELi1ELb1EE5__getB7v160006Ev, symObjAddr: 0x57D0, symBinAddr: 0x1000096B0, symSize: 0x10 }
  - { offsetInCU: 0x29BB0, offset: 0x29BB0, size: 0x8, addend: 0x0, symName: __ZNSt3__117__compressed_pairIPPNS_16__hash_node_baseIPNS_11__hash_nodeINS_17__hash_value_typeINS_12basic_stringIcNS_11char_traitsIcEENS_9allocatorIcEEEE9TokenTypeEEPvEEEENS_25__bucket_list_deallocatorINS7_ISG_EEEEE5firstB7v160006Ev, symObjAddr: 0x57E0, symBinAddr: 0x1000096C0, symSize: 0x20 }
  - { offsetInCU: 0x29BD6, offset: 0x29BD6, size: 0x8, addend: 0x0, symName: __ZNSt3__125__bucket_list_deallocatorINS_9allocatorIPNS_16__hash_node_baseIPNS_11__hash_nodeINS_17__hash_value_typeINS_12basic_stringIcNS_11char_traitsIcEENS1_IcEEEE9TokenTypeEEPvEEEEEEEclB7v160006EPSG_, symObjAddr: 0x5800, symBinAddr: 0x1000096E0, symSize: 0x50 }
  - { offsetInCU: 0x29C0B, offset: 0x29C0B, size: 0x8, addend: 0x0, symName: __ZNSt3__122__compressed_pair_elemIPPNS_16__hash_node_baseIPNS_11__hash_nodeINS_17__hash_value_typeINS_12basic_stringIcNS_11char_traitsIcEENS_9allocatorIcEEEE9TokenTypeEEPvEEEELi0ELb0EE5__getB7v160006Ev, symObjAddr: 0x5850, symBinAddr: 0x100009730, symSize: 0x10 }
  - { offsetInCU: 0x29C31, offset: 0x29C31, size: 0x8, addend: 0x0, symName: __ZNSt3__116allocator_traitsINS_9allocatorIPNS_16__hash_node_baseIPNS_11__hash_nodeINS_17__hash_value_typeINS_12basic_stringIcNS_11char_traitsIcEENS1_IcEEEE9TokenTypeEEPvEEEEEEE10deallocateB7v160006ERSH_PSG_m, symObjAddr: 0x5860, symBinAddr: 0x100009740, symSize: 0x30 }
  - { offsetInCU: 0x29C73, offset: 0x29C73, size: 0x8, addend: 0x0, symName: __ZNSt3__19allocatorIPNS_16__hash_node_baseIPNS_11__hash_nodeINS_17__hash_value_typeINS_12basic_stringIcNS_11char_traitsIcEENS0_IcEEEE9TokenTypeEEPvEEEEE10deallocateB7v160006EPSF_m, symObjAddr: 0x5890, symBinAddr: 0x100009770, symSize: 0x40 }
  - { offsetInCU: 0x29CB5, offset: 0x29CB5, size: 0x8, addend: 0x0, symName: __ZNSt3__19allocatorIPNS_16__hash_node_baseIPNS_11__hash_nodeINS_17__hash_value_typeINS_12basic_stringIcNS_11char_traitsIcEENS0_IcEEEE9TokenTypeEEPvEEEEE8allocateB7v160006Em, symObjAddr: 0x59D0, symBinAddr: 0x1000098B0, symSize: 0x50 }
  - { offsetInCU: 0x29CF4, offset: 0x29CF4, size: 0x8, addend: 0x0, symName: __ZNSt3__116allocator_traitsINS_9allocatorIPNS_16__hash_node_baseIPNS_11__hash_nodeINS_17__hash_value_typeINS_12basic_stringIcNS_11char_traitsIcEENS1_IcEEEE9TokenTypeEEPvEEEEEEE8max_sizeB7v160006ISH_vEEmRKSH_, symObjAddr: 0x5A20, symBinAddr: 0x100009900, symSize: 0x20 }
  - { offsetInCU: 0x29D22, offset: 0x29D22, size: 0x8, addend: 0x0, symName: __ZNKSt3__19allocatorIPNS_16__hash_node_baseIPNS_11__hash_nodeINS_17__hash_value_typeINS_12basic_stringIcNS_11char_traitsIcEENS0_IcEEEE9TokenTypeEEPvEEEEE8max_sizeB7v160006Ev, symObjAddr: 0x5A40, symBinAddr: 0x100009920, symSize: 0x20 }
  - { offsetInCU: 0x29D48, offset: 0x29D48, size: 0x8, addend: 0x0, symName: __ZNSt3__117__compressed_pairImNS_9allocatorIPNS_16__hash_node_baseIPNS_11__hash_nodeINS_17__hash_value_typeINS_12basic_stringIcNS_11char_traitsIcEENS1_IcEEEE9TokenTypeEEPvEEEEEEE5firstB7v160006Ev, symObjAddr: 0x5A60, symBinAddr: 0x100009940, symSize: 0x20 }
  - { offsetInCU: 0x29D79, offset: 0x29D79, size: 0x8, addend: 0x0, symName: __ZNKSt3__16__lessImmEclB7v160006ERKmS3_, symObjAddr: 0x5AF0, symBinAddr: 0x1000099D0, symSize: 0x30 }
  - { offsetInCU: 0x29DBB, offset: 0x29DBB, size: 0x8, addend: 0x0, symName: __ZNSt3__122__compressed_pair_elemINS_16__hash_node_baseIPNS_11__hash_nodeINS_17__hash_value_typeINS_12basic_stringIcNS_11char_traitsIcEENS_9allocatorIcEEEE9TokenTypeEEPvEEEELi0ELb0EE5__getB7v160006Ev, symObjAddr: 0x5B20, symBinAddr: 0x100009A00, symSize: 0x10 }
  - { offsetInCU: 0x29DE1, offset: 0x29DE1, size: 0x8, addend: 0x0, symName: __ZNKSt3__117__compressed_pairIPNS_11__hash_nodeINS_17__hash_value_typeINS_12basic_stringIcNS_11char_traitsIcEENS_9allocatorIcEEEE9TokenTypeEEPvEENS_22__hash_node_destructorINS6_ISC_EEEEE5firstB7v160006Ev, symObjAddr: 0x5B30, symBinAddr: 0x100009A10, symSize: 0x20 }
  - { offsetInCU: 0x29E07, offset: 0x29E07, size: 0x8, addend: 0x0, symName: __ZNKSt3__122__compressed_pair_elemIPNS_11__hash_nodeINS_17__hash_value_typeINS_12basic_stringIcNS_11char_traitsIcEENS_9allocatorIcEEEE9TokenTypeEEPvEELi0ELb0EE5__getB7v160006Ev, symObjAddr: 0x5B50, symBinAddr: 0x100009A30, symSize: 0x10 }
  - { offsetInCU: 0x29E2D, offset: 0x29E2D, size: 0x8, addend: 0x0, symName: __ZNSt3__117__compressed_pairIPNS_11__hash_nodeINS_17__hash_value_typeINS_12basic_stringIcNS_11char_traitsIcEENS_9allocatorIcEEEE9TokenTypeEEPvEENS_22__hash_node_destructorINS6_ISC_EEEEE5firstB7v160006Ev, symObjAddr: 0x5B60, symBinAddr: 0x100009A40, symSize: 0x20 }
  - { offsetInCU: 0x29E53, offset: 0x29E53, size: 0x8, addend: 0x0, symName: __ZNSt3__122__compressed_pair_elemIPNS_11__hash_nodeINS_17__hash_value_typeINS_12basic_stringIcNS_11char_traitsIcEENS_9allocatorIcEEEE9TokenTypeEEPvEELi0ELb0EE5__getB7v160006Ev, symObjAddr: 0x5B80, symBinAddr: 0x100009A60, symSize: 0x10 }
  - { offsetInCU: 0x29E79, offset: 0x29E79, size: 0x8, addend: 0x0, symName: __ZNSt3__110unique_ptrINS_11__hash_nodeINS_17__hash_value_typeINS_12basic_stringIcNS_11char_traitsIcEENS_9allocatorIcEEEE9TokenTypeEEPvEENS_22__hash_node_destructorINS6_ISC_EEEEED2B7v160006Ev, symObjAddr: 0x5B90, symBinAddr: 0x100009A70, symSize: 0x20 }
  - { offsetInCU: 0x29EA3, offset: 0x29EA3, size: 0x8, addend: 0x0, symName: __ZNSt3__110unique_ptrINS_11__hash_nodeINS_17__hash_value_typeINS_12basic_stringIcNS_11char_traitsIcEENS_9allocatorIcEEEE9TokenTypeEEPvEENS_22__hash_node_destructorINS6_ISC_EEEEE5resetB7v160006EPSC_, symObjAddr: 0x5BB0, symBinAddr: 0x100009A90, symSize: 0x70 }
  - { offsetInCU: 0x29EE7, offset: 0x29EE7, size: 0x8, addend: 0x0, symName: __ZNSt3__122__hash_node_destructorINS_9allocatorINS_11__hash_nodeINS_17__hash_value_typeINS_12basic_stringIcNS_11char_traitsIcEENS1_IcEEEE9TokenTypeEEPvEEEEEclB7v160006EPSC_, symObjAddr: 0x5C20, symBinAddr: 0x100009B00, symSize: 0x90 }
  - { offsetInCU: 0x29F1C, offset: 0x29F1C, size: 0x8, addend: 0x0, symName: __ZNSt3__116allocator_traitsINS_9allocatorINS_11__hash_nodeINS_17__hash_value_typeINS_12basic_stringIcNS_11char_traitsIcEENS1_IcEEEE9TokenTypeEEPvEEEEE7destroyB7v160006INS_4pairIKS8_S9_EEvvEEvRSD_PT_, symObjAddr: 0x5CB0, symBinAddr: 0x100009B90, symSize: 0x20 }
  - { offsetInCU: 0x29F57, offset: 0x29F57, size: 0x8, addend: 0x0, symName: __ZNSt3__116allocator_traitsINS_9allocatorINS_11__hash_nodeINS_17__hash_value_typeINS_12basic_stringIcNS_11char_traitsIcEENS1_IcEEEE9TokenTypeEEPvEEEEE10deallocateB7v160006ERSD_PSC_m, symObjAddr: 0x5CD0, symBinAddr: 0x100009BB0, symSize: 0x30 }
  - { offsetInCU: 0x29F99, offset: 0x29F99, size: 0x8, addend: 0x0, symName: __ZNSt3__14pairIKNS_12basic_stringIcNS_11char_traitsIcEENS_9allocatorIcEEEE9TokenTypeED1Ev, symObjAddr: 0x5D00, symBinAddr: 0x100009BE0, symSize: 0x20 }
  - { offsetInCU: 0x29FC5, offset: 0x29FC5, size: 0x8, addend: 0x0, symName: __ZNSt3__14pairIKNS_12basic_stringIcNS_11char_traitsIcEENS_9allocatorIcEEEE9TokenTypeED2Ev, symObjAddr: 0x5D20, symBinAddr: 0x100009C00, symSize: 0x20 }
  - { offsetInCU: 0x29FF1, offset: 0x29FF1, size: 0x8, addend: 0x0, symName: __ZNSt3__19allocatorINS_11__hash_nodeINS_17__hash_value_typeINS_12basic_stringIcNS_11char_traitsIcEENS0_IcEEEE9TokenTypeEEPvEEE10deallocateB7v160006EPSB_m, symObjAddr: 0x5D40, symBinAddr: 0x100009C20, symSize: 0x50 }
  - { offsetInCU: 0x2A033, offset: 0x2A033, size: 0x8, addend: 0x0, symName: __ZNSt3__115__hash_iteratorIPNS_11__hash_nodeINS_17__hash_value_typeINS_12basic_stringIcNS_11char_traitsIcEENS_9allocatorIcEEEE9TokenTypeEEPvEEEC2B7v160006EPNS_16__hash_node_baseISD_EEPKv, symObjAddr: 0x5D90, symBinAddr: 0x100009C70, symSize: 0x20 }
  - { offsetInCU: 0x2A07B, offset: 0x2A07B, size: 0x8, addend: 0x0, symName: __ZNSt3__14pairINS_15__hash_iteratorIPNS_11__hash_nodeINS_17__hash_value_typeINS_12basic_stringIcNS_11char_traitsIcEENS_9allocatorIcEEEE9TokenTypeEEPvEEEEbEC2B7v160006ISF_RbLSC_0EEEOT_OT0_, symObjAddr: 0x5DB0, symBinAddr: 0x100009C90, symSize: 0x30 }
  - { offsetInCU: 0x2A0D9, offset: 0x2A0D9, size: 0x8, addend: 0x0, symName: __ZNSt3__15tupleIJONS_12basic_stringIcNS_11char_traitsIcEENS_9allocatorIcEEEEEEC1B7v160006IJS6_ELi0EEEDpOT_, symObjAddr: 0x5DE0, symBinAddr: 0x100009CC0, symSize: 0x30 }
  - { offsetInCU: 0x2A123, offset: 0x2A123, size: 0x8, addend: 0x0, symName: __ZNSt3__15tupleIJONS_12basic_stringIcNS_11char_traitsIcEENS_9allocatorIcEEEEEEC2B7v160006IJS6_ELi0EEEDpOT_, symObjAddr: 0x5E10, symBinAddr: 0x100009CF0, symSize: 0x30 }
  - { offsetInCU: 0x2A16D, offset: 0x2A16D, size: 0x8, addend: 0x0, symName: __ZNSt3__112__tuple_implINS_15__tuple_indicesIJLm0EEEEJONS_12basic_stringIcNS_11char_traitsIcEENS_9allocatorIcEEEEEEC1B7v160006IJLm0EEJS9_EJEJEJS8_EEENS1_IJXspT_EEEENS_13__tuple_typesIJDpT0_EEENS1_IJXspT1_EEEENSD_IJDpT2_EEEDpOT3_, symObjAddr: 0x5E40, symBinAddr: 0x100009D20, symSize: 0x30 }
  - { offsetInCU: 0x2A202, offset: 0x2A202, size: 0x8, addend: 0x0, symName: __ZNSt3__112__tuple_implINS_15__tuple_indicesIJLm0EEEEJONS_12basic_stringIcNS_11char_traitsIcEENS_9allocatorIcEEEEEEC2B7v160006IJLm0EEJS9_EJEJEJS8_EEENS1_IJXspT_EEEENS_13__tuple_typesIJDpT0_EEENS1_IJXspT1_EEEENSD_IJDpT2_EEEDpOT3_, symObjAddr: 0x5E70, symBinAddr: 0x100009D50, symSize: 0x30 }
  - { offsetInCU: 0x2A297, offset: 0x2A297, size: 0x8, addend: 0x0, symName: __ZNSt3__112__tuple_leafILm0EONS_12basic_stringIcNS_11char_traitsIcEENS_9allocatorIcEEEELb0EEC2B7v160006IS6_vEEOT_, symObjAddr: 0x5EA0, symBinAddr: 0x100009D80, symSize: 0x20 }
  - { offsetInCU: 0x2A2DA, offset: 0x2A2DA, size: 0x8, addend: 0x0, symName: __ZNSt3__114pointer_traitsIPNS_17__hash_value_typeINS_12basic_stringIcNS_11char_traitsIcEENS_9allocatorIcEEEE9TokenTypeEEE10pointer_toB7v160006ERS9_, symObjAddr: 0x5EC0, symBinAddr: 0x100009DA0, symSize: 0x10 }
  - { offsetInCU: 0x2A2FD, offset: 0x2A2FD, size: 0x8, addend: 0x0, symName: __ZNSt3__113unordered_mapINS_12basic_stringIcNS_11char_traitsIcEENS_9allocatorIcEEEE9TokenTypeNS_4hashIS6_EENS_8equal_toIS6_EENS4_INS_4pairIKS6_S7_EEEEED2B7v160006Ev, symObjAddr: 0x5F00, symBinAddr: 0x100009DE0, symSize: 0x20 }
  - { offsetInCU: 0x2A327, offset: 0x2A327, size: 0x8, addend: 0x0, symName: __ZNSt3__112__hash_tableINS_17__hash_value_typeINS_12basic_stringIcNS_11char_traitsIcEENS_9allocatorIcEEEE9TokenTypeEENS_22__unordered_map_hasherIS7_S9_NS_4hashIS7_EENS_8equal_toIS7_EELb1EEENS_21__unordered_map_equalIS7_S9_SE_SC_Lb1EEENS5_IS9_EEED1Ev, symObjAddr: 0x5F20, symBinAddr: 0x100009E00, symSize: 0x20 }
  - { offsetInCU: 0x2A353, offset: 0x2A353, size: 0x8, addend: 0x0, symName: __ZNSt3__112__hash_tableINS_17__hash_value_typeINS_12basic_stringIcNS_11char_traitsIcEENS_9allocatorIcEEEE9TokenTypeEENS_22__unordered_map_hasherIS7_S9_NS_4hashIS7_EENS_8equal_toIS7_EELb1EEENS_21__unordered_map_equalIS7_S9_SE_SC_Lb1EEENS5_IS9_EEED2Ev, symObjAddr: 0x5F40, symBinAddr: 0x100009E20, symSize: 0x50 }
  - { offsetInCU: 0x2A37F, offset: 0x2A37F, size: 0x8, addend: 0x0, symName: __ZNSt3__112__hash_tableINS_17__hash_value_typeINS_12basic_stringIcNS_11char_traitsIcEENS_9allocatorIcEEEE9TokenTypeEENS_22__unordered_map_hasherIS7_S9_NS_4hashIS7_EENS_8equal_toIS7_EELb1EEENS_21__unordered_map_equalIS7_S9_SE_SC_Lb1EEENS5_IS9_EEE17__deallocate_nodeEPNS_16__hash_node_baseIPNS_11__hash_nodeIS9_PvEEEE, symObjAddr: 0x5F90, symBinAddr: 0x100009E70, symSize: 0xA0 }
  - { offsetInCU: 0x2A3E9, offset: 0x2A3E9, size: 0x8, addend: 0x0, symName: __ZNSt3__110unique_ptrIA_PNS_16__hash_node_baseIPNS_11__hash_nodeINS_17__hash_value_typeINS_12basic_stringIcNS_11char_traitsIcEENS_9allocatorIcEEEE9TokenTypeEEPvEEEENS_25__bucket_list_deallocatorINS7_ISG_EEEEED1B7v160006Ev, symObjAddr: 0x6040, symBinAddr: 0x100009F20, symSize: 0x20 }
  - { offsetInCU: 0x2A413, offset: 0x2A413, size: 0x8, addend: 0x0, symName: __ZNSt3__110unique_ptrIA_PNS_16__hash_node_baseIPNS_11__hash_nodeINS_17__hash_value_typeINS_12basic_stringIcNS_11char_traitsIcEENS_9allocatorIcEEEE9TokenTypeEEPvEEEENS_25__bucket_list_deallocatorINS7_ISG_EEEEED2B7v160006Ev, symObjAddr: 0x6060, symBinAddr: 0x100009F40, symSize: 0x20 }
  - { offsetInCU: 0x2A43D, offset: 0x2A43D, size: 0x8, addend: 0x0, symName: __ZNSt3__110unique_ptrIA_PNS_16__hash_node_baseIPNS_11__hash_nodeINS_17__hash_value_typeINS_12basic_stringIcNS_11char_traitsIcEENS_9allocatorIcEEEE9TokenTypeEEPvEEEENS_25__bucket_list_deallocatorINS7_ISG_EEEEE5resetB7v160006EDn, symObjAddr: 0x6080, symBinAddr: 0x100009F60, symSize: 0x60 }
  - { offsetInCU: 0x2A47E, offset: 0x2A47E, size: 0x8, addend: 0x0, symName: __ZN15LexicalAnalyzer12FSM_int_realEP7__sFILE, symObjAddr: 0x6100, symBinAddr: 0x100009FE0, symSize: 0x470 }
  - { offsetInCU: 0x2A4CE, offset: 0x2A4CE, size: 0x8, addend: 0x0, symName: __ZN15LexicalAnalyzer14FSM_identifierEP7__sFILE, symObjAddr: 0x6590, symBinAddr: 0x10000A470, symSize: 0x510 }
  - { offsetInCU: 0x2A51E, offset: 0x2A51E, size: 0x8, addend: 0x0, symName: __ZN15LexicalAnalyzer10isOperatorEc, symObjAddr: 0x6AA0, symBinAddr: 0x10000A980, symSize: 0xC0 }
  - { offsetInCU: 0x2A552, offset: 0x2A552, size: 0x8, addend: 0x0, symName: __ZNSt3__112basic_stringIcNS_11char_traitsIcEENS_9allocatorIcEEEC1B7v160006Emc, symObjAddr: 0x6B60, symBinAddr: 0x10000AA40, symSize: 0x30 }
  - { offsetInCU: 0x2A59A, offset: 0x2A59A, size: 0x8, addend: 0x0, symName: __ZNSt3__112basic_stringIcNS_11char_traitsIcEENS_9allocatorIcEEEpLB7v160006Ec, symObjAddr: 0x6B90, symBinAddr: 0x10000AA70, symSize: 0x30 }
  - { offsetInCU: 0x2A5CF, offset: 0x2A5CF, size: 0x8, addend: 0x0, symName: __ZN5TokenC1E9TokenTypeNSt3__112basic_stringIcNS1_11char_traitsIcEENS1_9allocatorIcEEEE, symObjAddr: 0x6BC0, symBinAddr: 0x10000AAA0, symSize: 0x30 }
  - { offsetInCU: 0x2A616, offset: 0x2A616, size: 0x8, addend: 0x0, symName: __ZN15LexicalAnalyzer11isSeparatorEc, symObjAddr: 0x6BF0, symBinAddr: 0x10000AAD0, symSize: 0x80 }
  - { offsetInCU: 0x2A64A, offset: 0x2A64A, size: 0x8, addend: 0x0, symName: __ZN15LexicalAnalyzer12isWhiteSpaceEc, symObjAddr: 0x6C70, symBinAddr: 0x10000AB50, symSize: 0x50 }
  - { offsetInCU: 0x2A67D, offset: 0x2A67D, size: 0x8, addend: 0x0, symName: __Z9__isctypeim, symObjAddr: 0x6CC0, symBinAddr: 0x10000ABA0, symSize: 0x60 }
  - { offsetInCU: 0x2A6B7, offset: 0x2A6B7, size: 0x8, addend: 0x0, symName: __Z8__istypeim, symObjAddr: 0x6D20, symBinAddr: 0x10000AC00, symSize: 0x70 }
  - { offsetInCU: 0x2A6F1, offset: 0x2A6F1, size: 0x8, addend: 0x0, symName: __Z7isasciii, symObjAddr: 0x6D90, symBinAddr: 0x10000AC70, symSize: 0x20 }
  - { offsetInCU: 0x2A71E, offset: 0x2A71E, size: 0x8, addend: 0x0, symName: __ZNSt3__113unordered_mapINS_12basic_stringIcNS_11char_traitsIcEENS_9allocatorIcEEEE9TokenTypeNS_4hashIS6_EENS_8equal_toIS6_EENS4_INS_4pairIKS6_S7_EEEEE4findB7v160006ERSD_, symObjAddr: 0x6E00, symBinAddr: 0x10000ACE0, symSize: 0x40 }
  - { offsetInCU: 0x2A753, offset: 0x2A753, size: 0x8, addend: 0x0, symName: __ZNSt3__113unordered_mapINS_12basic_stringIcNS_11char_traitsIcEENS_9allocatorIcEEEE9TokenTypeNS_4hashIS6_EENS_8equal_toIS6_EENS4_INS_4pairIKS6_S7_EEEEE3endB7v160006Ev, symObjAddr: 0x6E40, symBinAddr: 0x10000AD20, symSize: 0x30 }
  - { offsetInCU: 0x2A779, offset: 0x2A779, size: 0x8, addend: 0x0, symName: __ZNSt3__112__hash_tableINS_17__hash_value_typeINS_12basic_stringIcNS_11char_traitsIcEENS_9allocatorIcEEEE9TokenTypeEENS_22__unordered_map_hasherIS7_S9_NS_4hashIS7_EENS_8equal_toIS7_EELb1EEENS_21__unordered_map_equalIS7_S9_SE_SC_Lb1EEENS5_IS9_EEE4findIS7_EENS_15__hash_iteratorIPNS_11__hash_nodeIS9_PvEEEERKT_, symObjAddr: 0x6ED0, symBinAddr: 0x10000ADB0, symSize: 0x180 }
  - { offsetInCU: 0x2A803, offset: 0x2A803, size: 0x8, addend: 0x0, symName: __ZNSt3__119__hash_map_iteratorINS_15__hash_iteratorIPNS_11__hash_nodeINS_17__hash_value_typeINS_12basic_stringIcNS_11char_traitsIcEENS_9allocatorIcEEEE9TokenTypeEEPvEEEEEC1B7v160006ESF_, symObjAddr: 0x7050, symBinAddr: 0x10000AF30, symSize: 0x30 }
  - { offsetInCU: 0x2A83C, offset: 0x2A83C, size: 0x8, addend: 0x0, symName: __ZNSt3__112__hash_tableINS_17__hash_value_typeINS_12basic_stringIcNS_11char_traitsIcEENS_9allocatorIcEEEE9TokenTypeEENS_22__unordered_map_hasherIS7_S9_NS_4hashIS7_EENS_8equal_toIS7_EELb1EEENS_21__unordered_map_equalIS7_S9_SE_SC_Lb1EEENS5_IS9_EEE3endEv, symObjAddr: 0x7080, symBinAddr: 0x10000AF60, symSize: 0x30 }
  - { offsetInCU: 0x2A864, offset: 0x2A864, size: 0x8, addend: 0x0, symName: __ZNSt3__119__hash_map_iteratorINS_15__hash_iteratorIPNS_11__hash_nodeINS_17__hash_value_typeINS_12basic_stringIcNS_11char_traitsIcEENS_9allocatorIcEEEE9TokenTypeEEPvEEEEEC2B7v160006ESF_, symObjAddr: 0x70B0, symBinAddr: 0x10000AF90, symSize: 0x20 }
  - { offsetInCU: 0x2A89D, offset: 0x2A89D, size: 0x8, addend: 0x0, symName: __ZNSt3__112basic_stringIcNS_11char_traitsIcEENS_9allocatorIcEEEC2B7v160006Emc, symObjAddr: 0x70D0, symBinAddr: 0x10000AFB0, symSize: 0x50 }
  - { offsetInCU: 0x2A8E5, offset: 0x2A8E5, size: 0x8, addend: 0x0, symName: __ZNSt3__117__compressed_pairINS_12basic_stringIcNS_11char_traitsIcEENS_9allocatorIcEEE5__repES5_EC1B7v160006INS_18__default_init_tagESA_EEOT_OT0_, symObjAddr: 0x7120, symBinAddr: 0x10000B000, symSize: 0x30 }
  - { offsetInCU: 0x2A93D, offset: 0x2A93D, size: 0x8, addend: 0x0, symName: __ZNSt3__117__compressed_pairINS_12basic_stringIcNS_11char_traitsIcEENS_9allocatorIcEEE5__repES5_EC2B7v160006INS_18__default_init_tagESA_EEOT_OT0_, symObjAddr: 0x7150, symBinAddr: 0x10000B030, symSize: 0x30 }
  - { offsetInCU: 0x2A995, offset: 0x2A995, size: 0x8, addend: 0x0, symName: __ZNSt3__122__compressed_pair_elemINS_12basic_stringIcNS_11char_traitsIcEENS_9allocatorIcEEE5__repELi0ELb0EEC2B7v160006ENS_18__default_init_tagE, symObjAddr: 0x7180, symBinAddr: 0x10000B060, symSize: 0x10 }
  - { offsetInCU: 0x2A9CA, offset: 0x2A9CA, size: 0x8, addend: 0x0, symName: __ZNSt3__122__compressed_pair_elemINS_9allocatorIcEELi1ELb1EEC2B7v160006ENS_18__default_init_tagE, symObjAddr: 0x7190, symBinAddr: 0x10000B070, symSize: 0x20 }
  - { offsetInCU: 0x2A9FF, offset: 0x2A9FF, size: 0x8, addend: 0x0, symName: __ZNSt3__19allocatorIcEC2B7v160006Ev, symObjAddr: 0x71B0, symBinAddr: 0x10000B090, symSize: 0x20 }
  - { offsetInCU: 0x2AA29, offset: 0x2AA29, size: 0x8, addend: 0x0, symName: __ZNSt3__116__non_trivial_ifILb1ENS_9allocatorIcEEEC2B7v160006Ev, symObjAddr: 0x71D0, symBinAddr: 0x10000B0B0, symSize: 0x10 }
  - { offsetInCU: 0x2AA53, offset: 0x2AA53, size: 0x8, addend: 0x0, symName: __ZN5TokenC2E9TokenTypeNSt3__112basic_stringIcNS1_11char_traitsIcEENS1_9allocatorIcEEEE, symObjAddr: 0x71E0, symBinAddr: 0x10000B0C0, symSize: 0x40 }
  - { offsetInCU: 0x2AA9A, offset: 0x2AA9A, size: 0x8, addend: 0x0, symName: __ZN5TokenD2Ev, symObjAddr: 0x7220, symBinAddr: 0x10000B100, symSize: 0x20 }
  - { offsetInCU: 0x2AAC6, offset: 0x2AAC6, size: 0x8, addend: 0x0, symName: __ZNSt3__18ios_base4setfB7v160006Ejj, symObjAddr: 0x7240, symBinAddr: 0x10000B120, symSize: 0x50 }
  - { offsetInCU: 0x2AB1B, offset: 0x2AB1B, size: 0x8, addend: 0x0, symName: __ZNSt3__18ios_base6unsetfB7v160006Ej, symObjAddr: 0x7290, symBinAddr: 0x10000B170, symSize: 0x20 }
  - { offsetInCU: 0x2AB52, offset: 0x2AB52, size: 0x8, addend: 0x0, symName: __ZNSt3__18__iom_t6C1B7v160006Ei, symObjAddr: 0x72B0, symBinAddr: 0x10000B190, symSize: 0x30 }
  - { offsetInCU: 0x2AB8A, offset: 0x2AB8A, size: 0x8, addend: 0x0, symName: __ZNSt3__18__iom_t6C2B7v160006Ei, symObjAddr: 0x72E0, symBinAddr: 0x10000B1C0, symSize: 0x20 }
  - { offsetInCU: 0x2ABC2, offset: 0x2ABC2, size: 0x8, addend: 0x0, symName: __ZN14SyntaxAnalyzerC2Ev, symObjAddr: 0x7300, symBinAddr: 0x10000B1E0, symSize: 0x40 }
  - { offsetInCU: 0x2ABEF, offset: 0x2ABEF, size: 0x8, addend: 0x0, symName: __ZN19Symbol_and_AssemblyC1Ev, symObjAddr: 0x7340, symBinAddr: 0x10000B220, symSize: 0x20 }
  - { offsetInCU: 0x2AC19, offset: 0x2AC19, size: 0x8, addend: 0x0, symName: __ZN19Symbol_and_AssemblyC2Ev, symObjAddr: 0x7360, symBinAddr: 0x10000B240, symSize: 0xC0 }
  - { offsetInCU: 0x2AC43, offset: 0x2AC43, size: 0x8, addend: 0x0, symName: __ZNSt3__16vectorIN19Symbol_and_Assembly11InstructionENS_9allocatorIS2_EEEC1B7v160006Ev, symObjAddr: 0x7420, symBinAddr: 0x10000B300, symSize: 0x20 }
  - { offsetInCU: 0x2AC6D, offset: 0x2AC6D, size: 0x8, addend: 0x0, symName: __ZNSt3__113unordered_mapINS_12basic_stringIcNS_11char_traitsIcEENS_9allocatorIcEEEEN19Symbol_and_Assembly10SymbolInfoENS_4hashIS6_EENS_8equal_toIS6_EENS4_INS_4pairIKS6_S8_EEEEEC1B7v160006Ev, symObjAddr: 0x7440, symBinAddr: 0x10000B320, symSize: 0x20 }
  - { offsetInCU: 0x2AC97, offset: 0x2AC97, size: 0x8, addend: 0x0, symName: __ZNSt3__15stackI5ValueNS_5dequeIS1_NS_9allocatorIS1_EEEEEC1B7v160006Ev, symObjAddr: 0x7460, symBinAddr: 0x10000B340, symSize: 0x20 }
  - { offsetInCU: 0x2ACC1, offset: 0x2ACC1, size: 0x8, addend: 0x0, symName: __ZNSt3__15stackIiNS_5dequeIiNS_9allocatorIiEEEEEC1B7v160006Ev, symObjAddr: 0x7480, symBinAddr: 0x10000B360, symSize: 0x20 }
  - { offsetInCU: 0x2ACEB, offset: 0x2ACEB, size: 0x8, addend: 0x0, symName: __ZNSt3__16vectorIN19Symbol_and_Assembly11InstructionENS_9allocatorIS2_EEE7reserveEm, symObjAddr: 0x74A0, symBinAddr: 0x10000B380, symSize: 0xF0 }
  - { offsetInCU: 0x2AD46, offset: 0x2AD46, size: 0x8, addend: 0x0, symName: __ZNSt3__15stackIiNS_5dequeIiNS_9allocatorIiEEEEED1Ev, symObjAddr: 0x7590, symBinAddr: 0x10000B470, symSize: 0x20 }
  - { offsetInCU: 0x2AD72, offset: 0x2AD72, size: 0x8, addend: 0x0, symName: __ZNSt3__15stackI5ValueNS_5dequeIS1_NS_9allocatorIS1_EEEEED1Ev, symObjAddr: 0x75B0, symBinAddr: 0x10000B490, symSize: 0x20 }
  - { offsetInCU: 0x2AD9E, offset: 0x2AD9E, size: 0x8, addend: 0x0, symName: __ZNSt3__113unordered_mapINS_12basic_stringIcNS_11char_traitsIcEENS_9allocatorIcEEEEN19Symbol_and_Assembly10SymbolInfoENS_4hashIS6_EENS_8equal_toIS6_EENS4_INS_4pairIKS6_S8_EEEEED1B7v160006Ev, symObjAddr: 0x75D0, symBinAddr: 0x10000B4B0, symSize: 0x20 }
  - { offsetInCU: 0x2ADC8, offset: 0x2ADC8, size: 0x8, addend: 0x0, symName: __ZNSt3__16vectorIN19Symbol_and_Assembly11InstructionENS_9allocatorIS2_EEED1B7v160006Ev, symObjAddr: 0x75F0, symBinAddr: 0x10000B4D0, symSize: 0x20 }
  - { offsetInCU: 0x2ADF2, offset: 0x2ADF2, size: 0x8, addend: 0x0, symName: __ZNSt3__16vectorIN19Symbol_and_Assembly11InstructionENS_9allocatorIS2_EEEC2B7v160006Ev, symObjAddr: 0x7610, symBinAddr: 0x10000B4F0, symSize: 0x60 }
  - { offsetInCU: 0x2AE22, offset: 0x2AE22, size: 0x8, addend: 0x0, symName: __ZNSt3__117__compressed_pairIPN19Symbol_and_Assembly11InstructionENS_9allocatorIS2_EEEC1B7v160006IDnNS_18__default_init_tagEEEOT_OT0_, symObjAddr: 0x7670, symBinAddr: 0x10000B550, symSize: 0x30 }
  - { offsetInCU: 0x2AE7A, offset: 0x2AE7A, size: 0x8, addend: 0x0, symName: __ZNSt3__117__compressed_pairIPN19Symbol_and_Assembly11InstructionENS_9allocatorIS2_EEEC2B7v160006IDnNS_18__default_init_tagEEEOT_OT0_, symObjAddr: 0x76B0, symBinAddr: 0x10000B590, symSize: 0x40 }
  - { offsetInCU: 0x2AED2, offset: 0x2AED2, size: 0x8, addend: 0x0, symName: __ZNSt3__122__compressed_pair_elemIPN19Symbol_and_Assembly11InstructionELi0ELb0EEC2B7v160006IDnvEEOT_, symObjAddr: 0x76F0, symBinAddr: 0x10000B5D0, symSize: 0x20 }
  - { offsetInCU: 0x2AF14, offset: 0x2AF14, size: 0x8, addend: 0x0, symName: __ZNSt3__122__compressed_pair_elemINS_9allocatorIN19Symbol_and_Assembly11InstructionEEELi1ELb1EEC2B7v160006ENS_18__default_init_tagE, symObjAddr: 0x7710, symBinAddr: 0x10000B5F0, symSize: 0x20 }
  - { offsetInCU: 0x2AF49, offset: 0x2AF49, size: 0x8, addend: 0x0, symName: __ZNSt3__19allocatorIN19Symbol_and_Assembly11InstructionEEC2B7v160006Ev, symObjAddr: 0x7730, symBinAddr: 0x10000B610, symSize: 0x20 }
  - { offsetInCU: 0x2AF73, offset: 0x2AF73, size: 0x8, addend: 0x0, symName: __ZNSt3__116__non_trivial_ifILb1ENS_9allocatorIN19Symbol_and_Assembly11InstructionEEEEC2B7v160006Ev, symObjAddr: 0x7750, symBinAddr: 0x10000B630, symSize: 0x10 }
  - { offsetInCU: 0x2AF9D, offset: 0x2AF9D, size: 0x8, addend: 0x0, symName: __ZNSt3__113unordered_mapINS_12basic_stringIcNS_11char_traitsIcEENS_9allocatorIcEEEEN19Symbol_and_Assembly10SymbolInfoENS_4hashIS6_EENS_8equal_toIS6_EENS4_INS_4pairIKS6_S8_EEEEEC2B7v160006Ev, symObjAddr: 0x7760, symBinAddr: 0x10000B640, symSize: 0x40 }
  - { offsetInCU: 0x2AFC7, offset: 0x2AFC7, size: 0x8, addend: 0x0, symName: __ZNSt3__112__hash_tableINS_17__hash_value_typeINS_12basic_stringIcNS_11char_traitsIcEENS_9allocatorIcEEEEN19Symbol_and_Assembly10SymbolInfoEEENS_22__unordered_map_hasherIS7_SA_NS_4hashIS7_EENS_8equal_toIS7_EELb1EEENS_21__unordered_map_equalIS7_SA_SF_SD_Lb1EEENS5_ISA_EEEC1Ev, symObjAddr: 0x77A0, symBinAddr: 0x10000B680, symSize: 0x20 }
  - { offsetInCU: 0x2AFF3, offset: 0x2AFF3, size: 0x8, addend: 0x0, symName: __ZNSt3__112__hash_tableINS_17__hash_value_typeINS_12basic_stringIcNS_11char_traitsIcEENS_9allocatorIcEEEEN19Symbol_and_Assembly10SymbolInfoEEENS_22__unordered_map_hasherIS7_SA_NS_4hashIS7_EENS_8equal_toIS7_EELb1EEENS_21__unordered_map_equalIS7_SA_SF_SD_Lb1EEENS5_ISA_EEEC2Ev, symObjAddr: 0x77D0, symBinAddr: 0x10000B6B0, symSize: 0x80 }
  - { offsetInCU: 0x2B01F, offset: 0x2B01F, size: 0x8, addend: 0x0, symName: __ZNSt3__110unique_ptrIA_PNS_16__hash_node_baseIPNS_11__hash_nodeINS_17__hash_value_typeINS_12basic_stringIcNS_11char_traitsIcEENS_9allocatorIcEEEEN19Symbol_and_Assembly10SymbolInfoEEEPvEEEENS_25__bucket_list_deallocatorINS7_ISH_EEEEEC1B7v160006ILb1EvEEv, symObjAddr: 0x7850, symBinAddr: 0x10000B730, symSize: 0x20 }
  - { offsetInCU: 0x2B054, offset: 0x2B054, size: 0x8, addend: 0x0, symName: __ZNSt3__117__compressed_pairINS_16__hash_node_baseIPNS_11__hash_nodeINS_17__hash_value_typeINS_12basic_stringIcNS_11char_traitsIcEENS_9allocatorIcEEEEN19Symbol_and_Assembly10SymbolInfoEEEPvEEEENS7_ISE_EEEC1B7v160006ILb1EvEEv, symObjAddr: 0x7870, symBinAddr: 0x10000B750, symSize: 0x20 }
  - { offsetInCU: 0x2B089, offset: 0x2B089, size: 0x8, addend: 0x0, symName: __ZNSt3__117__compressed_pairImNS_22__unordered_map_hasherINS_12basic_stringIcNS_11char_traitsIcEENS_9allocatorIcEEEENS_17__hash_value_typeIS7_N19Symbol_and_Assembly10SymbolInfoEEENS_4hashIS7_EENS_8equal_toIS7_EELb1EEEEC1B7v160006IiNS_18__default_init_tagEEEOT_OT0_, symObjAddr: 0x7890, symBinAddr: 0x10000B770, symSize: 0x30 }
  - { offsetInCU: 0x2B0E1, offset: 0x2B0E1, size: 0x8, addend: 0x0, symName: __ZNSt3__117__compressed_pairIfNS_21__unordered_map_equalINS_12basic_stringIcNS_11char_traitsIcEENS_9allocatorIcEEEENS_17__hash_value_typeIS7_N19Symbol_and_Assembly10SymbolInfoEEENS_8equal_toIS7_EENS_4hashIS7_EELb1EEEEC1B7v160006IfNS_18__default_init_tagEEEOT_OT0_, symObjAddr: 0x78C0, symBinAddr: 0x10000B7A0, symSize: 0x30 }
  - { offsetInCU: 0x2B139, offset: 0x2B139, size: 0x8, addend: 0x0, symName: __ZNSt3__110unique_ptrIA_PNS_16__hash_node_baseIPNS_11__hash_nodeINS_17__hash_value_typeINS_12basic_stringIcNS_11char_traitsIcEENS_9allocatorIcEEEEN19Symbol_and_Assembly10SymbolInfoEEEPvEEEENS_25__bucket_list_deallocatorINS7_ISH_EEEEEC2B7v160006ILb1EvEEv, symObjAddr: 0x78F0, symBinAddr: 0x10000B7D0, symSize: 0x30 }
  - { offsetInCU: 0x2B16E, offset: 0x2B16E, size: 0x8, addend: 0x0, symName: __ZNSt3__117__compressed_pairIPPNS_16__hash_node_baseIPNS_11__hash_nodeINS_17__hash_value_typeINS_12basic_stringIcNS_11char_traitsIcEENS_9allocatorIcEEEEN19Symbol_and_Assembly10SymbolInfoEEEPvEEEENS_25__bucket_list_deallocatorINS7_ISH_EEEEEC1B7v160006INS_16__value_init_tagESO_EEOT_OT0_, symObjAddr: 0x7920, symBinAddr: 0x10000B800, symSize: 0x30 }
  - { offsetInCU: 0x2B1C6, offset: 0x2B1C6, size: 0x8, addend: 0x0, symName: __ZNSt3__117__compressed_pairIPPNS_16__hash_node_baseIPNS_11__hash_nodeINS_17__hash_value_typeINS_12basic_stringIcNS_11char_traitsIcEENS_9allocatorIcEEEEN19Symbol_and_Assembly10SymbolInfoEEEPvEEEENS_25__bucket_list_deallocatorINS7_ISH_EEEEEC2B7v160006INS_16__value_init_tagESO_EEOT_OT0_, symObjAddr: 0x7950, symBinAddr: 0x10000B830, symSize: 0x40 }
  - { offsetInCU: 0x2B21E, offset: 0x2B21E, size: 0x8, addend: 0x0, symName: __ZNSt3__122__compressed_pair_elemIPPNS_16__hash_node_baseIPNS_11__hash_nodeINS_17__hash_value_typeINS_12basic_stringIcNS_11char_traitsIcEENS_9allocatorIcEEEEN19Symbol_and_Assembly10SymbolInfoEEEPvEEEELi0ELb0EEC2B7v160006ENS_16__value_init_tagE, symObjAddr: 0x7990, symBinAddr: 0x10000B870, symSize: 0x20 }
  - { offsetInCU: 0x2B253, offset: 0x2B253, size: 0x8, addend: 0x0, symName: __ZNSt3__122__compressed_pair_elemINS_25__bucket_list_deallocatorINS_9allocatorIPNS_16__hash_node_baseIPNS_11__hash_nodeINS_17__hash_value_typeINS_12basic_stringIcNS_11char_traitsIcEENS2_IcEEEEN19Symbol_and_Assembly10SymbolInfoEEEPvEEEEEEEELi1ELb0EEC2B7v160006ENS_16__value_init_tagE, symObjAddr: 0x79B0, symBinAddr: 0x10000B890, symSize: 0x20 }
  - { offsetInCU: 0x2B288, offset: 0x2B288, size: 0x8, addend: 0x0, symName: __ZNSt3__125__bucket_list_deallocatorINS_9allocatorIPNS_16__hash_node_baseIPNS_11__hash_nodeINS_17__hash_value_typeINS_12basic_stringIcNS_11char_traitsIcEENS1_IcEEEEN19Symbol_and_Assembly10SymbolInfoEEEPvEEEEEEEC1B7v160006Ev, symObjAddr: 0x79D0, symBinAddr: 0x10000B8B0, symSize: 0x20 }
  - { offsetInCU: 0x2B2B2, offset: 0x2B2B2, size: 0x8, addend: 0x0, symName: __ZNSt3__125__bucket_list_deallocatorINS_9allocatorIPNS_16__hash_node_baseIPNS_11__hash_nodeINS_17__hash_value_typeINS_12basic_stringIcNS_11char_traitsIcEENS1_IcEEEEN19Symbol_and_Assembly10SymbolInfoEEEPvEEEEEEEC2B7v160006Ev, symObjAddr: 0x79F0, symBinAddr: 0x10000B8D0, symSize: 0x40 }
  - { offsetInCU: 0x2B2DC, offset: 0x2B2DC, size: 0x8, addend: 0x0, symName: __ZNSt3__117__compressed_pairImNS_9allocatorIPNS_16__hash_node_baseIPNS_11__hash_nodeINS_17__hash_value_typeINS_12basic_stringIcNS_11char_traitsIcEENS1_IcEEEEN19Symbol_and_Assembly10SymbolInfoEEEPvEEEEEEEC1B7v160006IiNS_18__default_init_tagEEEOT_OT0_, symObjAddr: 0x7A30, symBinAddr: 0x10000B910, symSize: 0x30 }
  - { offsetInCU: 0x2B334, offset: 0x2B334, size: 0x8, addend: 0x0, symName: __ZNSt3__117__compressed_pairImNS_9allocatorIPNS_16__hash_node_baseIPNS_11__hash_nodeINS_17__hash_value_typeINS_12basic_stringIcNS_11char_traitsIcEENS1_IcEEEEN19Symbol_and_Assembly10SymbolInfoEEEPvEEEEEEEC2B7v160006IiNS_18__default_init_tagEEEOT_OT0_, symObjAddr: 0x7A60, symBinAddr: 0x10000B940, symSize: 0x40 }
  - { offsetInCU: 0x2B38C, offset: 0x2B38C, size: 0x8, addend: 0x0, symName: __ZNSt3__122__compressed_pair_elemINS_9allocatorIPNS_16__hash_node_baseIPNS_11__hash_nodeINS_17__hash_value_typeINS_12basic_stringIcNS_11char_traitsIcEENS1_IcEEEEN19Symbol_and_Assembly10SymbolInfoEEEPvEEEEEELi1ELb1EEC2B7v160006ENS_18__default_init_tagE, symObjAddr: 0x7AA0, symBinAddr: 0x10000B980, symSize: 0x20 }
  - { offsetInCU: 0x2B3C1, offset: 0x2B3C1, size: 0x8, addend: 0x0, symName: __ZNSt3__19allocatorIPNS_16__hash_node_baseIPNS_11__hash_nodeINS_17__hash_value_typeINS_12basic_stringIcNS_11char_traitsIcEENS0_IcEEEEN19Symbol_and_Assembly10SymbolInfoEEEPvEEEEEC2B7v160006Ev, symObjAddr: 0x7AC0, symBinAddr: 0x10000B9A0, symSize: 0x20 }
  - { offsetInCU: 0x2B3EB, offset: 0x2B3EB, size: 0x8, addend: 0x0, symName: __ZNSt3__116__non_trivial_ifILb1ENS_9allocatorIPNS_16__hash_node_baseIPNS_11__hash_nodeINS_17__hash_value_typeINS_12basic_stringIcNS_11char_traitsIcEENS1_IcEEEEN19Symbol_and_Assembly10SymbolInfoEEEPvEEEEEEEC2B7v160006Ev, symObjAddr: 0x7AE0, symBinAddr: 0x10000B9C0, symSize: 0x10 }
  - { offsetInCU: 0x2B415, offset: 0x2B415, size: 0x8, addend: 0x0, symName: __ZNSt3__117__compressed_pairINS_16__hash_node_baseIPNS_11__hash_nodeINS_17__hash_value_typeINS_12basic_stringIcNS_11char_traitsIcEENS_9allocatorIcEEEEN19Symbol_and_Assembly10SymbolInfoEEEPvEEEENS7_ISE_EEEC2B7v160006ILb1EvEEv, symObjAddr: 0x7AF0, symBinAddr: 0x10000B9D0, symSize: 0x30 }
  - { offsetInCU: 0x2B44A, offset: 0x2B44A, size: 0x8, addend: 0x0, symName: __ZNSt3__122__compressed_pair_elemINS_16__hash_node_baseIPNS_11__hash_nodeINS_17__hash_value_typeINS_12basic_stringIcNS_11char_traitsIcEENS_9allocatorIcEEEEN19Symbol_and_Assembly10SymbolInfoEEEPvEEEELi0ELb0EEC2B7v160006ENS_16__value_init_tagE, symObjAddr: 0x7B20, symBinAddr: 0x10000BA00, symSize: 0x20 }
  - { offsetInCU: 0x2B47F, offset: 0x2B47F, size: 0x8, addend: 0x0, symName: __ZNSt3__122__compressed_pair_elemINS_9allocatorINS_11__hash_nodeINS_17__hash_value_typeINS_12basic_stringIcNS_11char_traitsIcEENS1_IcEEEEN19Symbol_and_Assembly10SymbolInfoEEEPvEEEELi1ELb1EEC2B7v160006ENS_16__value_init_tagE, symObjAddr: 0x7B40, symBinAddr: 0x10000BA20, symSize: 0x20 }
  - { offsetInCU: 0x2B4B4, offset: 0x2B4B4, size: 0x8, addend: 0x0, symName: __ZNSt3__116__hash_node_baseIPNS_11__hash_nodeINS_17__hash_value_typeINS_12basic_stringIcNS_11char_traitsIcEENS_9allocatorIcEEEEN19Symbol_and_Assembly10SymbolInfoEEEPvEEEC1B7v160006Ev, symObjAddr: 0x7B60, symBinAddr: 0x10000BA40, symSize: 0x20 }
  - { offsetInCU: 0x2B4DE, offset: 0x2B4DE, size: 0x8, addend: 0x0, symName: __ZNSt3__116__hash_node_baseIPNS_11__hash_nodeINS_17__hash_value_typeINS_12basic_stringIcNS_11char_traitsIcEENS_9allocatorIcEEEEN19Symbol_and_Assembly10SymbolInfoEEEPvEEEC2B7v160006Ev, symObjAddr: 0x7B80, symBinAddr: 0x10000BA60, symSize: 0x20 }
  - { offsetInCU: 0x2B508, offset: 0x2B508, size: 0x8, addend: 0x0, symName: __ZNSt3__19allocatorINS_11__hash_nodeINS_17__hash_value_typeINS_12basic_stringIcNS_11char_traitsIcEENS0_IcEEEEN19Symbol_and_Assembly10SymbolInfoEEEPvEEEC2B7v160006Ev, symObjAddr: 0x7BA0, symBinAddr: 0x10000BA80, symSize: 0x20 }
  - { offsetInCU: 0x2B532, offset: 0x2B532, size: 0x8, addend: 0x0, symName: __ZNSt3__116__non_trivial_ifILb1ENS_9allocatorINS_11__hash_nodeINS_17__hash_value_typeINS_12basic_stringIcNS_11char_traitsIcEENS1_IcEEEEN19Symbol_and_Assembly10SymbolInfoEEEPvEEEEEC2B7v160006Ev, symObjAddr: 0x7BC0, symBinAddr: 0x10000BAA0, symSize: 0x10 }
  - { offsetInCU: 0x2B55C, offset: 0x2B55C, size: 0x8, addend: 0x0, symName: __ZNSt3__117__compressed_pairImNS_22__unordered_map_hasherINS_12basic_stringIcNS_11char_traitsIcEENS_9allocatorIcEEEENS_17__hash_value_typeIS7_N19Symbol_and_Assembly10SymbolInfoEEENS_4hashIS7_EENS_8equal_toIS7_EELb1EEEEC2B7v160006IiNS_18__default_init_tagEEEOT_OT0_, symObjAddr: 0x7BD0, symBinAddr: 0x10000BAB0, symSize: 0x40 }
  - { offsetInCU: 0x2B5B4, offset: 0x2B5B4, size: 0x8, addend: 0x0, symName: __ZNSt3__122__compressed_pair_elemINS_22__unordered_map_hasherINS_12basic_stringIcNS_11char_traitsIcEENS_9allocatorIcEEEENS_17__hash_value_typeIS7_N19Symbol_and_Assembly10SymbolInfoEEENS_4hashIS7_EENS_8equal_toIS7_EELb1EEELi1ELb1EEC2B7v160006ENS_18__default_init_tagE, symObjAddr: 0x7C10, symBinAddr: 0x10000BAF0, symSize: 0x20 }
  - { offsetInCU: 0x2B5E9, offset: 0x2B5E9, size: 0x8, addend: 0x0, symName: __ZNSt3__122__unordered_map_hasherINS_12basic_stringIcNS_11char_traitsIcEENS_9allocatorIcEEEENS_17__hash_value_typeIS6_N19Symbol_and_Assembly10SymbolInfoEEENS_4hashIS6_EENS_8equal_toIS6_EELb1EEC2B7v160006Ev, symObjAddr: 0x7C30, symBinAddr: 0x10000BB10, symSize: 0x10 }
  - { offsetInCU: 0x2B613, offset: 0x2B613, size: 0x8, addend: 0x0, symName: __ZNSt3__117__compressed_pairIfNS_21__unordered_map_equalINS_12basic_stringIcNS_11char_traitsIcEENS_9allocatorIcEEEENS_17__hash_value_typeIS7_N19Symbol_and_Assembly10SymbolInfoEEENS_8equal_toIS7_EENS_4hashIS7_EELb1EEEEC2B7v160006IfNS_18__default_init_tagEEEOT_OT0_, symObjAddr: 0x7C40, symBinAddr: 0x10000BB20, symSize: 0x40 }
  - { offsetInCU: 0x2B66B, offset: 0x2B66B, size: 0x8, addend: 0x0, symName: __ZNSt3__122__compressed_pair_elemINS_21__unordered_map_equalINS_12basic_stringIcNS_11char_traitsIcEENS_9allocatorIcEEEENS_17__hash_value_typeIS7_N19Symbol_and_Assembly10SymbolInfoEEENS_8equal_toIS7_EENS_4hashIS7_EELb1EEELi1ELb1EEC2B7v160006ENS_18__default_init_tagE, symObjAddr: 0x7C80, symBinAddr: 0x10000BB60, symSize: 0x20 }
  - { offsetInCU: 0x2B6A0, offset: 0x2B6A0, size: 0x8, addend: 0x0, symName: __ZNSt3__121__unordered_map_equalINS_12basic_stringIcNS_11char_traitsIcEENS_9allocatorIcEEEENS_17__hash_value_typeIS6_N19Symbol_and_Assembly10SymbolInfoEEENS_8equal_toIS6_EENS_4hashIS6_EELb1EEC2B7v160006Ev, symObjAddr: 0x7CA0, symBinAddr: 0x10000BB80, symSize: 0x10 }
  - { offsetInCU: 0x2B6CA, offset: 0x2B6CA, size: 0x8, addend: 0x0, symName: __ZNSt3__15stackI5ValueNS_5dequeIS1_NS_9allocatorIS1_EEEEEC2B7v160006Ev, symObjAddr: 0x7CB0, symBinAddr: 0x10000BB90, symSize: 0x20 }
  - { offsetInCU: 0x2B6F4, offset: 0x2B6F4, size: 0x8, addend: 0x0, symName: __ZNSt3__15dequeI5ValueNS_9allocatorIS1_EEEC1B7v160006Ev, symObjAddr: 0x7CD0, symBinAddr: 0x10000BBB0, symSize: 0x20 }
  - { offsetInCU: 0x2B71E, offset: 0x2B71E, size: 0x8, addend: 0x0, symName: __ZNSt3__15dequeI5ValueNS_9allocatorIS1_EEEC2B7v160006Ev, symObjAddr: 0x7CF0, symBinAddr: 0x10000BBD0, symSize: 0x50 }
  - { offsetInCU: 0x2B748, offset: 0x2B748, size: 0x8, addend: 0x0, symName: __ZNSt3__114__split_bufferIP5ValueNS_9allocatorIS2_EEEC1Ev, symObjAddr: 0x7D40, symBinAddr: 0x10000BC20, symSize: 0x20 }
  - { offsetInCU: 0x2B774, offset: 0x2B774, size: 0x8, addend: 0x0, symName: __ZNSt3__117__compressed_pairImNS_9allocatorI5ValueEEEC1B7v160006IiNS_18__default_init_tagEEEOT_OT0_, symObjAddr: 0x7D60, symBinAddr: 0x10000BC40, symSize: 0x30 }
  - { offsetInCU: 0x2B7CC, offset: 0x2B7CC, size: 0x8, addend: 0x0, symName: __ZNSt3__114__split_bufferIP5ValueNS_9allocatorIS2_EEEC2Ev, symObjAddr: 0x7D90, symBinAddr: 0x10000BC70, symSize: 0x60 }
  - { offsetInCU: 0x2B7F8, offset: 0x2B7F8, size: 0x8, addend: 0x0, symName: __ZNSt3__117__compressed_pairIPP5ValueNS_9allocatorIS2_EEEC1B7v160006IDnNS_18__default_init_tagEEEOT_OT0_, symObjAddr: 0x7DF0, symBinAddr: 0x10000BCD0, symSize: 0x30 }
  - { offsetInCU: 0x2B850, offset: 0x2B850, size: 0x8, addend: 0x0, symName: __ZNSt3__117__compressed_pairIPP5ValueNS_9allocatorIS2_EEEC2B7v160006IDnNS_18__default_init_tagEEEOT_OT0_, symObjAddr: 0x7E20, symBinAddr: 0x10000BD00, symSize: 0x40 }
  - { offsetInCU: 0x2B8A8, offset: 0x2B8A8, size: 0x8, addend: 0x0, symName: __ZNSt3__122__compressed_pair_elemIPP5ValueLi0ELb0EEC2B7v160006IDnvEEOT_, symObjAddr: 0x7E60, symBinAddr: 0x10000BD40, symSize: 0x20 }
  - { offsetInCU: 0x2B8EA, offset: 0x2B8EA, size: 0x8, addend: 0x0, symName: __ZNSt3__122__compressed_pair_elemINS_9allocatorIP5ValueEELi1ELb1EEC2B7v160006ENS_18__default_init_tagE, symObjAddr: 0x7E80, symBinAddr: 0x10000BD60, symSize: 0x20 }
  - { offsetInCU: 0x2B91F, offset: 0x2B91F, size: 0x8, addend: 0x0, symName: __ZNSt3__19allocatorIP5ValueEC2B7v160006Ev, symObjAddr: 0x7EA0, symBinAddr: 0x10000BD80, symSize: 0x20 }
  - { offsetInCU: 0x2B949, offset: 0x2B949, size: 0x8, addend: 0x0, symName: __ZNSt3__116__non_trivial_ifILb1ENS_9allocatorIP5ValueEEEC2B7v160006Ev, symObjAddr: 0x7EC0, symBinAddr: 0x10000BDA0, symSize: 0x10 }
  - { offsetInCU: 0x2B973, offset: 0x2B973, size: 0x8, addend: 0x0, symName: __ZNSt3__117__compressed_pairImNS_9allocatorI5ValueEEEC2B7v160006IiNS_18__default_init_tagEEEOT_OT0_, symObjAddr: 0x7ED0, symBinAddr: 0x10000BDB0, symSize: 0x40 }
  - { offsetInCU: 0x2B9CB, offset: 0x2B9CB, size: 0x8, addend: 0x0, symName: __ZNSt3__122__compressed_pair_elemINS_9allocatorI5ValueEELi1ELb1EEC2B7v160006ENS_18__default_init_tagE, symObjAddr: 0x7F10, symBinAddr: 0x10000BDF0, symSize: 0x20 }
  - { offsetInCU: 0x2BA00, offset: 0x2BA00, size: 0x8, addend: 0x0, symName: __ZNSt3__19allocatorI5ValueEC2B7v160006Ev, symObjAddr: 0x7F30, symBinAddr: 0x10000BE10, symSize: 0x20 }
  - { offsetInCU: 0x2BA2A, offset: 0x2BA2A, size: 0x8, addend: 0x0, symName: __ZNSt3__116__non_trivial_ifILb1ENS_9allocatorI5ValueEEEC2B7v160006Ev, symObjAddr: 0x7F50, symBinAddr: 0x10000BE30, symSize: 0x10 }
  - { offsetInCU: 0x2BA54, offset: 0x2BA54, size: 0x8, addend: 0x0, symName: __ZNSt3__15stackIiNS_5dequeIiNS_9allocatorIiEEEEEC2B7v160006Ev, symObjAddr: 0x7F60, symBinAddr: 0x10000BE40, symSize: 0x20 }
  - { offsetInCU: 0x2BA7E, offset: 0x2BA7E, size: 0x8, addend: 0x0, symName: __ZNSt3__15dequeIiNS_9allocatorIiEEEC1B7v160006Ev, symObjAddr: 0x7F80, symBinAddr: 0x10000BE60, symSize: 0x20 }
  - { offsetInCU: 0x2BAA8, offset: 0x2BAA8, size: 0x8, addend: 0x0, symName: __ZNSt3__15dequeIiNS_9allocatorIiEEEC2B7v160006Ev, symObjAddr: 0x7FA0, symBinAddr: 0x10000BE80, symSize: 0x50 }
  - { offsetInCU: 0x2BAD2, offset: 0x2BAD2, size: 0x8, addend: 0x0, symName: __ZNSt3__114__split_bufferIPiNS_9allocatorIS1_EEEC1Ev, symObjAddr: 0x7FF0, symBinAddr: 0x10000BED0, symSize: 0x20 }
  - { offsetInCU: 0x2BAFE, offset: 0x2BAFE, size: 0x8, addend: 0x0, symName: __ZNSt3__117__compressed_pairImNS_9allocatorIiEEEC1B7v160006IiNS_18__default_init_tagEEEOT_OT0_, symObjAddr: 0x8010, symBinAddr: 0x10000BEF0, symSize: 0x30 }
  - { offsetInCU: 0x2BB56, offset: 0x2BB56, size: 0x8, addend: 0x0, symName: __ZNSt3__114__split_bufferIPiNS_9allocatorIS1_EEEC2Ev, symObjAddr: 0x8040, symBinAddr: 0x10000BF20, symSize: 0x60 }
  - { offsetInCU: 0x2BB82, offset: 0x2BB82, size: 0x8, addend: 0x0, symName: __ZNSt3__117__compressed_pairIPPiNS_9allocatorIS1_EEEC1B7v160006IDnNS_18__default_init_tagEEEOT_OT0_, symObjAddr: 0x80A0, symBinAddr: 0x10000BF80, symSize: 0x30 }
  - { offsetInCU: 0x2BBDA, offset: 0x2BBDA, size: 0x8, addend: 0x0, symName: __ZNSt3__117__compressed_pairIPPiNS_9allocatorIS1_EEEC2B7v160006IDnNS_18__default_init_tagEEEOT_OT0_, symObjAddr: 0x80D0, symBinAddr: 0x10000BFB0, symSize: 0x40 }
  - { offsetInCU: 0x2BC32, offset: 0x2BC32, size: 0x8, addend: 0x0, symName: __ZNSt3__122__compressed_pair_elemIPPiLi0ELb0EEC2B7v160006IDnvEEOT_, symObjAddr: 0x8110, symBinAddr: 0x10000BFF0, symSize: 0x20 }
  - { offsetInCU: 0x2BC74, offset: 0x2BC74, size: 0x8, addend: 0x0, symName: __ZNSt3__122__compressed_pair_elemINS_9allocatorIPiEELi1ELb1EEC2B7v160006ENS_18__default_init_tagE, symObjAddr: 0x8130, symBinAddr: 0x10000C010, symSize: 0x20 }
  - { offsetInCU: 0x2BCA9, offset: 0x2BCA9, size: 0x8, addend: 0x0, symName: __ZNSt3__19allocatorIPiEC2B7v160006Ev, symObjAddr: 0x8150, symBinAddr: 0x10000C030, symSize: 0x20 }
  - { offsetInCU: 0x2BCD3, offset: 0x2BCD3, size: 0x8, addend: 0x0, symName: __ZNSt3__116__non_trivial_ifILb1ENS_9allocatorIPiEEEC2B7v160006Ev, symObjAddr: 0x8170, symBinAddr: 0x10000C050, symSize: 0x10 }
  - { offsetInCU: 0x2BCFD, offset: 0x2BCFD, size: 0x8, addend: 0x0, symName: __ZNSt3__117__compressed_pairImNS_9allocatorIiEEEC2B7v160006IiNS_18__default_init_tagEEEOT_OT0_, symObjAddr: 0x8180, symBinAddr: 0x10000C060, symSize: 0x40 }
  - { offsetInCU: 0x2BD55, offset: 0x2BD55, size: 0x8, addend: 0x0, symName: __ZNSt3__122__compressed_pair_elemINS_9allocatorIiEELi1ELb1EEC2B7v160006ENS_18__default_init_tagE, symObjAddr: 0x81C0, symBinAddr: 0x10000C0A0, symSize: 0x20 }
  - { offsetInCU: 0x2BD8A, offset: 0x2BD8A, size: 0x8, addend: 0x0, symName: __ZNSt3__19allocatorIiEC2B7v160006Ev, symObjAddr: 0x81E0, symBinAddr: 0x10000C0C0, symSize: 0x20 }
  - { offsetInCU: 0x2BDB4, offset: 0x2BDB4, size: 0x8, addend: 0x0, symName: __ZNSt3__116__non_trivial_ifILb1ENS_9allocatorIiEEEC2B7v160006Ev, symObjAddr: 0x8200, symBinAddr: 0x10000C0E0, symSize: 0x10 }
  - { offsetInCU: 0x2BDDE, offset: 0x2BDDE, size: 0x8, addend: 0x0, symName: __ZNKSt3__16vectorIN19Symbol_and_Assembly11InstructionENS_9allocatorIS2_EEE8capacityB7v160006Ev, symObjAddr: 0x8210, symBinAddr: 0x10000C0F0, symSize: 0x40 }
  - { offsetInCU: 0x2BE04, offset: 0x2BE04, size: 0x8, addend: 0x0, symName: __ZNKSt3__16vectorIN19Symbol_and_Assembly11InstructionENS_9allocatorIS2_EEE8max_sizeEv, symObjAddr: 0x8250, symBinAddr: 0x10000C130, symSize: 0x60 }
  - { offsetInCU: 0x2BE2C, offset: 0x2BE2C, size: 0x8, addend: 0x0, symName: __ZNKSt3__16vectorIN19Symbol_and_Assembly11InstructionENS_9allocatorIS2_EEE20__throw_length_errorB7v160006Ev, symObjAddr: 0x82B0, symBinAddr: 0x10000C190, symSize: 0x20 }
  - { offsetInCU: 0x2BE52, offset: 0x2BE52, size: 0x8, addend: 0x0, symName: __ZNSt3__16vectorIN19Symbol_and_Assembly11InstructionENS_9allocatorIS2_EEE7__allocB7v160006Ev, symObjAddr: 0x82D0, symBinAddr: 0x10000C1B0, symSize: 0x20 }
  - { offsetInCU: 0x2BE78, offset: 0x2BE78, size: 0x8, addend: 0x0, symName: __ZNKSt3__16vectorIN19Symbol_and_Assembly11InstructionENS_9allocatorIS2_EEE4sizeB7v160006Ev, symObjAddr: 0x82F0, symBinAddr: 0x10000C1D0, symSize: 0x30 }
  - { offsetInCU: 0x2BE9E, offset: 0x2BE9E, size: 0x8, addend: 0x0, symName: __ZNSt3__114__split_bufferIN19Symbol_and_Assembly11InstructionERNS_9allocatorIS2_EEEC1EmmS5_, symObjAddr: 0x8320, symBinAddr: 0x10000C200, symSize: 0x40 }
  - { offsetInCU: 0x2BEF4, offset: 0x2BEF4, size: 0x8, addend: 0x0, symName: __ZNSt3__114__split_bufferIN19Symbol_and_Assembly11InstructionERNS_9allocatorIS2_EEED1Ev, symObjAddr: 0x8490, symBinAddr: 0x10000C370, symSize: 0x20 }
  - { offsetInCU: 0x2BF20, offset: 0x2BF20, size: 0x8, addend: 0x0, symName: __ZNKSt3__16vectorIN19Symbol_and_Assembly11InstructionENS_9allocatorIS2_EEE9__end_capB7v160006Ev, symObjAddr: 0x84B0, symBinAddr: 0x10000C390, symSize: 0x20 }
  - { offsetInCU: 0x2BF46, offset: 0x2BF46, size: 0x8, addend: 0x0, symName: __ZNKSt3__117__compressed_pairIPN19Symbol_and_Assembly11InstructionENS_9allocatorIS2_EEE5firstB7v160006Ev, symObjAddr: 0x84D0, symBinAddr: 0x10000C3B0, symSize: 0x20 }
  - { offsetInCU: 0x2BF6C, offset: 0x2BF6C, size: 0x8, addend: 0x0, symName: __ZNKSt3__122__compressed_pair_elemIPN19Symbol_and_Assembly11InstructionELi0ELb0EE5__getB7v160006Ev, symObjAddr: 0x84F0, symBinAddr: 0x10000C3D0, symSize: 0x10 }
  - { offsetInCU: 0x2BF9D, offset: 0x2BF9D, size: 0x8, addend: 0x0, symName: __ZNSt3__116allocator_traitsINS_9allocatorIN19Symbol_and_Assembly11InstructionEEEE8max_sizeB7v160006IS4_vEEmRKS4_, symObjAddr: 0x8530, symBinAddr: 0x10000C410, symSize: 0x20 }
  - { offsetInCU: 0x2BFCB, offset: 0x2BFCB, size: 0x8, addend: 0x0, symName: __ZNKSt3__16vectorIN19Symbol_and_Assembly11InstructionENS_9allocatorIS2_EEE7__allocB7v160006Ev, symObjAddr: 0x8550, symBinAddr: 0x10000C430, symSize: 0x20 }
  - { offsetInCU: 0x2BFF1, offset: 0x2BFF1, size: 0x8, addend: 0x0, symName: __ZNSt3__114numeric_limitsIlE3maxB7v160006Ev, symObjAddr: 0x8570, symBinAddr: 0x10000C450, symSize: 0x10 }
  - { offsetInCU: 0x2C005, offset: 0x2C005, size: 0x8, addend: 0x0, symName: __ZNKSt3__19allocatorIN19Symbol_and_Assembly11InstructionEE8max_sizeB7v160006Ev, symObjAddr: 0x85D0, symBinAddr: 0x10000C4B0, symSize: 0x20 }
  - { offsetInCU: 0x2C02B, offset: 0x2C02B, size: 0x8, addend: 0x0, symName: __ZNKSt3__117__compressed_pairIPN19Symbol_and_Assembly11InstructionENS_9allocatorIS2_EEE6secondB7v160006Ev, symObjAddr: 0x85F0, symBinAddr: 0x10000C4D0, symSize: 0x20 }
  - { offsetInCU: 0x2C051, offset: 0x2C051, size: 0x8, addend: 0x0, symName: __ZNKSt3__122__compressed_pair_elemINS_9allocatorIN19Symbol_and_Assembly11InstructionEEELi1ELb1EE5__getB7v160006Ev, symObjAddr: 0x8610, symBinAddr: 0x10000C4F0, symSize: 0x10 }
  - { offsetInCU: 0x2C077, offset: 0x2C077, size: 0x8, addend: 0x0, symName: __ZNSt3__123__libcpp_numeric_limitsIlLb1EE3maxB7v160006Ev, symObjAddr: 0x8620, symBinAddr: 0x10000C500, symSize: 0x10 }
  - { offsetInCU: 0x2C08B, offset: 0x2C08B, size: 0x8, addend: 0x0, symName: __ZNSt12length_errorC1B7v160006EPKc, symObjAddr: 0x86A0, symBinAddr: 0x10000C580, symSize: 0x30 }
  - { offsetInCU: 0x2C0C3, offset: 0x2C0C3, size: 0x8, addend: 0x0, symName: __ZNSt12length_errorC2B7v160006EPKc, symObjAddr: 0x86D0, symBinAddr: 0x10000C5B0, symSize: 0x40 }
  - { offsetInCU: 0x2C0FB, offset: 0x2C0FB, size: 0x8, addend: 0x0, symName: __ZNSt3__117__compressed_pairIPN19Symbol_and_Assembly11InstructionENS_9allocatorIS2_EEE6secondB7v160006Ev, symObjAddr: 0x8710, symBinAddr: 0x10000C5F0, symSize: 0x20 }
  - { offsetInCU: 0x2C121, offset: 0x2C121, size: 0x8, addend: 0x0, symName: __ZNSt3__122__compressed_pair_elemINS_9allocatorIN19Symbol_and_Assembly11InstructionEEELi1ELb1EE5__getB7v160006Ev, symObjAddr: 0x8730, symBinAddr: 0x10000C610, symSize: 0x10 }
  - { offsetInCU: 0x2C147, offset: 0x2C147, size: 0x8, addend: 0x0, symName: __ZNSt3__114__split_bufferIN19Symbol_and_Assembly11InstructionERNS_9allocatorIS2_EEEC2EmmS5_, symObjAddr: 0x8740, symBinAddr: 0x10000C620, symSize: 0xC0 }
  - { offsetInCU: 0x2C1BA, offset: 0x2C1BA, size: 0x8, addend: 0x0, symName: __ZNSt3__117__compressed_pairIPN19Symbol_and_Assembly11InstructionERNS_9allocatorIS2_EEEC1B7v160006IDnS6_EEOT_OT0_, symObjAddr: 0x8800, symBinAddr: 0x10000C6E0, symSize: 0x30 }
  - { offsetInCU: 0x2C212, offset: 0x2C212, size: 0x8, addend: 0x0, symName: __ZNSt3__114__split_bufferIN19Symbol_and_Assembly11InstructionERNS_9allocatorIS2_EEE7__allocB7v160006Ev, symObjAddr: 0x8870, symBinAddr: 0x10000C750, symSize: 0x20 }
  - { offsetInCU: 0x2C238, offset: 0x2C238, size: 0x8, addend: 0x0, symName: __ZNSt3__114__split_bufferIN19Symbol_and_Assembly11InstructionERNS_9allocatorIS2_EEE9__end_capB7v160006Ev, symObjAddr: 0x8890, symBinAddr: 0x10000C770, symSize: 0x20 }
  - { offsetInCU: 0x2C25E, offset: 0x2C25E, size: 0x8, addend: 0x0, symName: __ZNSt3__117__compressed_pairIPN19Symbol_and_Assembly11InstructionERNS_9allocatorIS2_EEEC2B7v160006IDnS6_EEOT_OT0_, symObjAddr: 0x88B0, symBinAddr: 0x10000C790, symSize: 0x40 }
  - { offsetInCU: 0x2C2B6, offset: 0x2C2B6, size: 0x8, addend: 0x0, symName: __ZNSt3__122__compressed_pair_elemIRNS_9allocatorIN19Symbol_and_Assembly11InstructionEEELi1ELb0EEC2B7v160006IS5_vEEOT_, symObjAddr: 0x88F0, symBinAddr: 0x10000C7D0, symSize: 0x20 }
  - { offsetInCU: 0x2C2F8, offset: 0x2C2F8, size: 0x8, addend: 0x0, symName: __ZNSt3__19allocatorIN19Symbol_and_Assembly11InstructionEE8allocateB7v160006Em, symObjAddr: 0x8910, symBinAddr: 0x10000C7F0, symSize: 0x50 }
  - { offsetInCU: 0x2C32C, offset: 0x2C32C, size: 0x8, addend: 0x0, symName: __ZNSt3__117__compressed_pairIPN19Symbol_and_Assembly11InstructionERNS_9allocatorIS2_EEE6secondB7v160006Ev, symObjAddr: 0x8960, symBinAddr: 0x10000C840, symSize: 0x20 }
  - { offsetInCU: 0x2C352, offset: 0x2C352, size: 0x8, addend: 0x0, symName: __ZNSt3__122__compressed_pair_elemIRNS_9allocatorIN19Symbol_and_Assembly11InstructionEEELi1ELb0EE5__getB7v160006Ev, symObjAddr: 0x8980, symBinAddr: 0x10000C860, symSize: 0x20 }
  - { offsetInCU: 0x2C378, offset: 0x2C378, size: 0x8, addend: 0x0, symName: __ZNSt3__117__compressed_pairIPN19Symbol_and_Assembly11InstructionERNS_9allocatorIS2_EEE5firstB7v160006Ev, symObjAddr: 0x89A0, symBinAddr: 0x10000C880, symSize: 0x20 }
  - { offsetInCU: 0x2C39E, offset: 0x2C39E, size: 0x8, addend: 0x0, symName: __ZNSt3__122__compressed_pair_elemIPN19Symbol_and_Assembly11InstructionELi0ELb0EE5__getB7v160006Ev, symObjAddr: 0x89C0, symBinAddr: 0x10000C8A0, symSize: 0x10 }
  - { offsetInCU: 0x2C3C4, offset: 0x2C3C4, size: 0x8, addend: 0x0, symName: __ZNKSt3__16vectorIN19Symbol_and_Assembly11InstructionENS_9allocatorIS2_EEE17__annotate_deleteB7v160006Ev, symObjAddr: 0x89D0, symBinAddr: 0x10000C8B0, symSize: 0xB0 }
  - { offsetInCU: 0x2C3EA, offset: 0x2C3EA, size: 0x8, addend: 0x0, symName: __ZNSt3__116reverse_iteratorIPN19Symbol_and_Assembly11InstructionEEC1B7v160006ES3_, symObjAddr: 0x8C00, symBinAddr: 0x10000CAE0, symSize: 0x30 }
  - { offsetInCU: 0x2C422, offset: 0x2C422, size: 0x8, addend: 0x0, symName: __ZNKSt3__116reverse_iteratorIPN19Symbol_and_Assembly11InstructionEE4baseB7v160006Ev, symObjAddr: 0x8C30, symBinAddr: 0x10000CB10, symSize: 0x20 }
  - { offsetInCU: 0x2C448, offset: 0x2C448, size: 0x8, addend: 0x0, symName: __ZNSt3__16vectorIN19Symbol_and_Assembly11InstructionENS_9allocatorIS2_EEE9__end_capB7v160006Ev, symObjAddr: 0x8C90, symBinAddr: 0x10000CB70, symSize: 0x20 }
  - { offsetInCU: 0x2C46E, offset: 0x2C46E, size: 0x8, addend: 0x0, symName: __ZNKSt3__16vectorIN19Symbol_and_Assembly11InstructionENS_9allocatorIS2_EEE14__annotate_newB7v160006Em, symObjAddr: 0x8CB0, symBinAddr: 0x10000CB90, symSize: 0xA0 }
  - { offsetInCU: 0x2C4A3, offset: 0x2C4A3, size: 0x8, addend: 0x0, symName: __ZNKSt3__16vectorIN19Symbol_and_Assembly11InstructionENS_9allocatorIS2_EEE31__annotate_contiguous_containerB7v160006EPKvS7_S7_S7_, symObjAddr: 0x8D60, symBinAddr: 0x10000CC40, symSize: 0x20 }
  - { offsetInCU: 0x2C4F9, offset: 0x2C4F9, size: 0x8, addend: 0x0, symName: __ZNKSt3__16vectorIN19Symbol_and_Assembly11InstructionENS_9allocatorIS2_EEE4dataB7v160006Ev, symObjAddr: 0x8D80, symBinAddr: 0x10000CC60, symSize: 0x20 }
  - { offsetInCU: 0x2C51F, offset: 0x2C51F, size: 0x8, addend: 0x0, symName: __ZNSt3__129_AllocatorDestroyRangeReverseINS_9allocatorIN19Symbol_and_Assembly11InstructionEEENS_16reverse_iteratorIPS3_EEEC1B7v160006ERS4_RS7_SA_, symObjAddr: 0x8E10, symBinAddr: 0x10000CCF0, symSize: 0x40 }
  - { offsetInCU: 0x2C57C, offset: 0x2C57C, size: 0x8, addend: 0x0, symName: __ZNSt3__116allocator_traitsINS_9allocatorIN19Symbol_and_Assembly11InstructionEEEE9constructB7v160006IS3_JS3_EvEEvRS4_PT_DpOT0_, symObjAddr: 0x8E90, symBinAddr: 0x10000CD70, symSize: 0x30 }
  - { offsetInCU: 0x2C5D3, offset: 0x2C5D3, size: 0x8, addend: 0x0, symName: __ZNKSt3__116reverse_iteratorIPN19Symbol_and_Assembly11InstructionEEdeB7v160006Ev, symObjAddr: 0x8EE0, symBinAddr: 0x10000CDC0, symSize: 0x30 }
  - { offsetInCU: 0x2C607, offset: 0x2C607, size: 0x8, addend: 0x0, symName: __ZNSt3__116reverse_iteratorIPN19Symbol_and_Assembly11InstructionEEppB7v160006Ev, symObjAddr: 0x8F10, symBinAddr: 0x10000CDF0, symSize: 0x20 }
  - { offsetInCU: 0x2C62D, offset: 0x2C62D, size: 0x8, addend: 0x0, symName: __ZNSt3__128__exception_guard_exceptionsINS_29_AllocatorDestroyRangeReverseINS_9allocatorIN19Symbol_and_Assembly11InstructionEEENS_16reverse_iteratorIPS4_EEEEE10__completeB7v160006Ev, symObjAddr: 0x8F30, symBinAddr: 0x10000CE10, symSize: 0x20 }
  - { offsetInCU: 0x2C653, offset: 0x2C653, size: 0x8, addend: 0x0, symName: __ZNSt3__128__exception_guard_exceptionsINS_29_AllocatorDestroyRangeReverseINS_9allocatorIN19Symbol_and_Assembly11InstructionEEENS_16reverse_iteratorIPS4_EEEEED1B7v160006Ev, symObjAddr: 0x8F50, symBinAddr: 0x10000CE30, symSize: 0x20 }
  - { offsetInCU: 0x2C67D, offset: 0x2C67D, size: 0x8, addend: 0x0, symName: __ZNSt3__128__exception_guard_exceptionsINS_29_AllocatorDestroyRangeReverseINS_9allocatorIN19Symbol_and_Assembly11InstructionEEENS_16reverse_iteratorIPS4_EEEEEC1B7v160006ES9_, symObjAddr: 0x8F70, symBinAddr: 0x10000CE50, symSize: 0x40 }
  - { offsetInCU: 0x2C6B5, offset: 0x2C6B5, size: 0x8, addend: 0x0, symName: __ZNSt3__128__exception_guard_exceptionsINS_29_AllocatorDestroyRangeReverseINS_9allocatorIN19Symbol_and_Assembly11InstructionEEENS_16reverse_iteratorIPS4_EEEEEC2B7v160006ES9_, symObjAddr: 0x8FB0, symBinAddr: 0x10000CE90, symSize: 0x30 }
  - { offsetInCU: 0x2C6ED, offset: 0x2C6ED, size: 0x8, addend: 0x0, symName: __ZNSt3__129_AllocatorDestroyRangeReverseINS_9allocatorIN19Symbol_and_Assembly11InstructionEEENS_16reverse_iteratorIPS3_EEEC2B7v160006ERS4_RS7_SA_, symObjAddr: 0x8FE0, symBinAddr: 0x10000CEC0, symSize: 0x40 }
  - { offsetInCU: 0x2C744, offset: 0x2C744, size: 0x8, addend: 0x0, symName: __ZNSt3__19allocatorIN19Symbol_and_Assembly11InstructionEE9constructB7v160006IS2_JS2_EEEvPT_DpOT0_, symObjAddr: 0x9020, symBinAddr: 0x10000CF00, symSize: 0x30 }
  - { offsetInCU: 0x2C79A, offset: 0x2C79A, size: 0x8, addend: 0x0, symName: __ZN19Symbol_and_Assembly11InstructionC1EOS0_, symObjAddr: 0x9050, symBinAddr: 0x10000CF30, symSize: 0x30 }
  - { offsetInCU: 0x2C7CF, offset: 0x2C7CF, size: 0x8, addend: 0x0, symName: __ZN19Symbol_and_Assembly11InstructionC2EOS0_, symObjAddr: 0x9080, symBinAddr: 0x10000CF60, symSize: 0x50 }
  - { offsetInCU: 0x2C80A, offset: 0x2C80A, size: 0x8, addend: 0x0, symName: __ZNSt3__119__to_address_helperINS_16reverse_iteratorIPN19Symbol_and_Assembly11InstructionEEEvE6__callB7v160006ERKS5_, symObjAddr: 0x90D0, symBinAddr: 0x10000CFB0, symSize: 0x40 }
  - { offsetInCU: 0x2C82D, offset: 0x2C82D, size: 0x8, addend: 0x0, symName: __ZNKSt3__116reverse_iteratorIPN19Symbol_and_Assembly11InstructionEEptB7v160006Ev, symObjAddr: 0x9110, symBinAddr: 0x10000CFF0, symSize: 0x20 }
  - { offsetInCU: 0x2C853, offset: 0x2C853, size: 0x8, addend: 0x0, symName: __ZNSt3__128__exception_guard_exceptionsINS_29_AllocatorDestroyRangeReverseINS_9allocatorIN19Symbol_and_Assembly11InstructionEEENS_16reverse_iteratorIPS4_EEEEED2B7v160006Ev, symObjAddr: 0x9130, symBinAddr: 0x10000D010, symSize: 0x40 }
  - { offsetInCU: 0x2C87D, offset: 0x2C87D, size: 0x8, addend: 0x0, symName: __ZNKSt3__129_AllocatorDestroyRangeReverseINS_9allocatorIN19Symbol_and_Assembly11InstructionEEENS_16reverse_iteratorIPS3_EEEclB7v160006Ev, symObjAddr: 0x9170, symBinAddr: 0x10000D050, symSize: 0xF0 }
  - { offsetInCU: 0x2C8A4, offset: 0x2C8A4, size: 0x8, addend: 0x0, symName: __ZNSt3__116reverse_iteratorINS0_IPN19Symbol_and_Assembly11InstructionEEEEC1B7v160006ES4_, symObjAddr: 0x92D0, symBinAddr: 0x10000D1B0, symSize: 0x30 }
  - { offsetInCU: 0x2C8DC, offset: 0x2C8DC, size: 0x8, addend: 0x0, symName: __ZNSt3__116allocator_traitsINS_9allocatorIN19Symbol_and_Assembly11InstructionEEEE7destroyB7v160006IS3_vEEvRS4_PT_, symObjAddr: 0x9350, symBinAddr: 0x10000D230, symSize: 0x30 }
  - { offsetInCU: 0x2C919, offset: 0x2C919, size: 0x8, addend: 0x0, symName: __ZNSt3__116reverse_iteratorINS0_IPN19Symbol_and_Assembly11InstructionEEEEppB7v160006Ev, symObjAddr: 0x93A0, symBinAddr: 0x10000D280, symSize: 0x30 }
  - { offsetInCU: 0x2C93F, offset: 0x2C93F, size: 0x8, addend: 0x0, symName: __ZNKSt3__116reverse_iteratorINS0_IPN19Symbol_and_Assembly11InstructionEEEE4baseB7v160006Ev, symObjAddr: 0x93D0, symBinAddr: 0x10000D2B0, symSize: 0x20 }
  - { offsetInCU: 0x2C965, offset: 0x2C965, size: 0x8, addend: 0x0, symName: __ZNSt3__19allocatorIN19Symbol_and_Assembly11InstructionEE7destroyB7v160006EPS2_, symObjAddr: 0x93F0, symBinAddr: 0x10000D2D0, symSize: 0x20 }
  - { offsetInCU: 0x2C999, offset: 0x2C999, size: 0x8, addend: 0x0, symName: __ZN19Symbol_and_Assembly11InstructionD1Ev, symObjAddr: 0x9410, symBinAddr: 0x10000D2F0, symSize: 0x20 }
  - { offsetInCU: 0x2C9C5, offset: 0x2C9C5, size: 0x8, addend: 0x0, symName: __ZN19Symbol_and_Assembly11InstructionD2Ev, symObjAddr: 0x9430, symBinAddr: 0x10000D310, symSize: 0x20 }
  - { offsetInCU: 0x2C9F7, offset: 0x2C9F7, size: 0x8, addend: 0x0, symName: __ZNSt3__119__to_address_helperINS_16reverse_iteratorINS1_IPN19Symbol_and_Assembly11InstructionEEEEEvE6__callB7v160006ERKS6_, symObjAddr: 0x9450, symBinAddr: 0x10000D330, symSize: 0x40 }
  - { offsetInCU: 0x2CA1A, offset: 0x2CA1A, size: 0x8, addend: 0x0, symName: __ZNKSt3__116reverse_iteratorINS0_IPN19Symbol_and_Assembly11InstructionEEEEptB7v160006Ev, symObjAddr: 0x9490, symBinAddr: 0x10000D370, symSize: 0x20 }
  - { offsetInCU: 0x2CA40, offset: 0x2CA40, size: 0x8, addend: 0x0, symName: __ZNKSt3__116reverse_iteratorINS0_IPN19Symbol_and_Assembly11InstructionEEEEdeB7v160006Ev, symObjAddr: 0x94B0, symBinAddr: 0x10000D390, symSize: 0x40 }
  - { offsetInCU: 0x2CA74, offset: 0x2CA74, size: 0x8, addend: 0x0, symName: __ZNSt3__116reverse_iteratorIPN19Symbol_and_Assembly11InstructionEEmmB7v160006Ev, symObjAddr: 0x94F0, symBinAddr: 0x10000D3D0, symSize: 0x20 }
  - { offsetInCU: 0x2CA9A, offset: 0x2CA9A, size: 0x8, addend: 0x0, symName: __ZNSt3__116reverse_iteratorINS0_IPN19Symbol_and_Assembly11InstructionEEEEC2B7v160006ES4_, symObjAddr: 0x9510, symBinAddr: 0x10000D3F0, symSize: 0x40 }
  - { offsetInCU: 0x2CAD2, offset: 0x2CAD2, size: 0x8, addend: 0x0, symName: __ZNSt3__116reverse_iteratorIPN19Symbol_and_Assembly11InstructionEEC2B7v160006ES3_, symObjAddr: 0x9550, symBinAddr: 0x10000D430, symSize: 0x30 }
  - { offsetInCU: 0x2CB0A, offset: 0x2CB0A, size: 0x8, addend: 0x0, symName: __ZNSt3__117__compressed_pairIPN19Symbol_and_Assembly11InstructionENS_9allocatorIS2_EEE5firstB7v160006Ev, symObjAddr: 0x9580, symBinAddr: 0x10000D460, symSize: 0x20 }
  - { offsetInCU: 0x2CB30, offset: 0x2CB30, size: 0x8, addend: 0x0, symName: __ZNSt3__114__split_bufferIN19Symbol_and_Assembly11InstructionERNS_9allocatorIS2_EEED2Ev, symObjAddr: 0x95A0, symBinAddr: 0x10000D480, symSize: 0x70 }
  - { offsetInCU: 0x2CB5C, offset: 0x2CB5C, size: 0x8, addend: 0x0, symName: __ZNSt3__114__split_bufferIN19Symbol_and_Assembly11InstructionERNS_9allocatorIS2_EEE5clearB7v160006Ev, symObjAddr: 0x9610, symBinAddr: 0x10000D4F0, symSize: 0x20 }
  - { offsetInCU: 0x2CB82, offset: 0x2CB82, size: 0x8, addend: 0x0, symName: __ZNSt3__116allocator_traitsINS_9allocatorIN19Symbol_and_Assembly11InstructionEEEE10deallocateB7v160006ERS4_PS3_m, symObjAddr: 0x9630, symBinAddr: 0x10000D510, symSize: 0x30 }
  - { offsetInCU: 0x2CBC4, offset: 0x2CBC4, size: 0x8, addend: 0x0, symName: __ZNKSt3__114__split_bufferIN19Symbol_and_Assembly11InstructionERNS_9allocatorIS2_EEE8capacityB7v160006Ev, symObjAddr: 0x9660, symBinAddr: 0x10000D540, symSize: 0x40 }
  - { offsetInCU: 0x2CBEA, offset: 0x2CBEA, size: 0x8, addend: 0x0, symName: __ZNSt3__114__split_bufferIN19Symbol_and_Assembly11InstructionERNS_9allocatorIS2_EEE17__destruct_at_endB7v160006EPS2_, symObjAddr: 0x96A0, symBinAddr: 0x10000D580, symSize: 0x30 }
  - { offsetInCU: 0x2CC1E, offset: 0x2CC1E, size: 0x8, addend: 0x0, symName: __ZNSt3__114__split_bufferIN19Symbol_and_Assembly11InstructionERNS_9allocatorIS2_EEE17__destruct_at_endB7v160006EPS2_NS_17integral_constantIbLb0EEE, symObjAddr: 0x96D0, symBinAddr: 0x10000D5B0, symSize: 0x80 }
  - { offsetInCU: 0x2CC5F, offset: 0x2CC5F, size: 0x8, addend: 0x0, symName: __ZNSt3__19allocatorIN19Symbol_and_Assembly11InstructionEE10deallocateB7v160006EPS2_m, symObjAddr: 0x9750, symBinAddr: 0x10000D630, symSize: 0x50 }
  - { offsetInCU: 0x2CCA1, offset: 0x2CCA1, size: 0x8, addend: 0x0, symName: __ZNKSt3__114__split_bufferIN19Symbol_and_Assembly11InstructionERNS_9allocatorIS2_EEE9__end_capB7v160006Ev, symObjAddr: 0x97A0, symBinAddr: 0x10000D680, symSize: 0x20 }
  - { offsetInCU: 0x2CCC7, offset: 0x2CCC7, size: 0x8, addend: 0x0, symName: __ZNKSt3__117__compressed_pairIPN19Symbol_and_Assembly11InstructionERNS_9allocatorIS2_EEE5firstB7v160006Ev, symObjAddr: 0x97C0, symBinAddr: 0x10000D6A0, symSize: 0x20 }
  - { offsetInCU: 0x2CCED, offset: 0x2CCED, size: 0x8, addend: 0x0, symName: __ZNSt3__15stackIiNS_5dequeIiNS_9allocatorIiEEEEED2Ev, symObjAddr: 0x97E0, symBinAddr: 0x10000D6C0, symSize: 0x20 }
  - { offsetInCU: 0x2CD19, offset: 0x2CD19, size: 0x8, addend: 0x0, symName: __ZNSt3__15dequeIiNS_9allocatorIiEEED1B7v160006Ev, symObjAddr: 0x9800, symBinAddr: 0x10000D6E0, symSize: 0x20 }
  - { offsetInCU: 0x2CD43, offset: 0x2CD43, size: 0x8, addend: 0x0, symName: __ZNSt3__15dequeIiNS_9allocatorIiEEED2B7v160006Ev, symObjAddr: 0x9820, symBinAddr: 0x10000D700, symSize: 0x80 }
  - { offsetInCU: 0x2CD99, offset: 0x2CD99, size: 0x8, addend: 0x0, symName: __ZNSt3__15dequeIiNS_9allocatorIiEEE5clearEv, symObjAddr: 0x98A0, symBinAddr: 0x10000D780, symSize: 0x180 }
  - { offsetInCU: 0x2CDF4, offset: 0x2CDF4, size: 0x8, addend: 0x0, symName: __ZNSt3__114__split_bufferIPiNS_9allocatorIS1_EEE5beginB7v160006Ev, symObjAddr: 0x9A20, symBinAddr: 0x10000D900, symSize: 0x20 }
  - { offsetInCU: 0x2CE1A, offset: 0x2CE1A, size: 0x8, addend: 0x0, symName: __ZNSt3__114__split_bufferIPiNS_9allocatorIS1_EEE3endB7v160006Ev, symObjAddr: 0x9A40, symBinAddr: 0x10000D920, symSize: 0x20 }
  - { offsetInCU: 0x2CE40, offset: 0x2CE40, size: 0x8, addend: 0x0, symName: __ZNSt3__116allocator_traitsINS_9allocatorIiEEE10deallocateB7v160006ERS2_Pim, symObjAddr: 0x9A60, symBinAddr: 0x10000D940, symSize: 0x30 }
  - { offsetInCU: 0x2CE82, offset: 0x2CE82, size: 0x8, addend: 0x0, symName: __ZNSt3__15dequeIiNS_9allocatorIiEEE7__allocB7v160006Ev, symObjAddr: 0x9A90, symBinAddr: 0x10000D970, symSize: 0x20 }
  - { offsetInCU: 0x2CEA8, offset: 0x2CEA8, size: 0x8, addend: 0x0, symName: __ZNSt3__114__split_bufferIPiNS_9allocatorIS1_EEED1Ev, symObjAddr: 0x9AB0, symBinAddr: 0x10000D990, symSize: 0x20 }
  - { offsetInCU: 0x2CED4, offset: 0x2CED4, size: 0x8, addend: 0x0, symName: __ZNSt3__15dequeIiNS_9allocatorIiEEE5beginB7v160006Ev, symObjAddr: 0x9AD0, symBinAddr: 0x10000D9B0, symSize: 0xB0 }
  - { offsetInCU: 0x2CF09, offset: 0x2CF09, size: 0x8, addend: 0x0, symName: __ZNSt3__15dequeIiNS_9allocatorIiEEE3endB7v160006Ev, symObjAddr: 0x9B80, symBinAddr: 0x10000DA60, symSize: 0xB0 }
  - { offsetInCU: 0x2CF4D, offset: 0x2CF4D, size: 0x8, addend: 0x0, symName: __ZNSt3__116allocator_traitsINS_9allocatorIiEEE7destroyB7v160006IivEEvRS2_PT_, symObjAddr: 0x9C60, symBinAddr: 0x10000DB40, symSize: 0x30 }
  - { offsetInCU: 0x2CF8A, offset: 0x2CF8A, size: 0x8, addend: 0x0, symName: __ZNKSt3__116__deque_iteratorIiPiRiPS1_lLl1024EEdeB7v160006Ev, symObjAddr: 0x9C90, symBinAddr: 0x10000DB70, symSize: 0x20 }
  - { offsetInCU: 0x2CFB0, offset: 0x2CFB0, size: 0x8, addend: 0x0, symName: __ZNSt3__116__deque_iteratorIiPiRiPS1_lLl1024EEppB7v160006Ev, symObjAddr: 0x9CB0, symBinAddr: 0x10000DB90, symSize: 0x60 }
  - { offsetInCU: 0x2CFD6, offset: 0x2CFD6, size: 0x8, addend: 0x0, symName: __ZNSt3__15dequeIiNS_9allocatorIiEEE6__sizeB7v160006Ev, symObjAddr: 0x9D10, symBinAddr: 0x10000DBF0, symSize: 0x20 }
  - { offsetInCU: 0x2CFFC, offset: 0x2CFFC, size: 0x8, addend: 0x0, symName: __ZNKSt3__114__split_bufferIPiNS_9allocatorIS1_EEE4sizeB7v160006Ev, symObjAddr: 0x9D30, symBinAddr: 0x10000DC10, symSize: 0x20 }
  - { offsetInCU: 0x2D022, offset: 0x2D022, size: 0x8, addend: 0x0, symName: __ZNSt3__114__split_bufferIPiNS_9allocatorIS1_EEE5frontB7v160006Ev, symObjAddr: 0x9D50, symBinAddr: 0x10000DC30, symSize: 0x20 }
  - { offsetInCU: 0x2D048, offset: 0x2D048, size: 0x8, addend: 0x0, symName: __ZNSt3__114__split_bufferIPiNS_9allocatorIS1_EEE9pop_frontB7v160006Ev, symObjAddr: 0x9D70, symBinAddr: 0x10000DC50, symSize: 0x30 }
  - { offsetInCU: 0x2D06E, offset: 0x2D06E, size: 0x8, addend: 0x0, symName: __ZNKSt3__114__split_bufferIPiNS_9allocatorIS1_EEE5emptyB7v160006Ev, symObjAddr: 0x9DA0, symBinAddr: 0x10000DC80, symSize: 0x20 }
  - { offsetInCU: 0x2D094, offset: 0x2D094, size: 0x8, addend: 0x0, symName: __ZNSt3__116__deque_iteratorIiPiRiPS1_lLl1024EEC1B7v160006ES3_S1_, symObjAddr: 0x9DC0, symBinAddr: 0x10000DCA0, symSize: 0x30 }
  - { offsetInCU: 0x2D0DC, offset: 0x2D0DC, size: 0x8, addend: 0x0, symName: __ZNSt3__116__deque_iteratorIiPiRiPS1_lLl1024EEC2B7v160006ES3_S1_, symObjAddr: 0x9DF0, symBinAddr: 0x10000DCD0, symSize: 0x30 }
  - { offsetInCU: 0x2D124, offset: 0x2D124, size: 0x8, addend: 0x0, symName: __ZNKSt3__15dequeIiNS_9allocatorIiEEE4sizeB7v160006Ev, symObjAddr: 0x9E20, symBinAddr: 0x10000DD00, symSize: 0x20 }
  - { offsetInCU: 0x2D14A, offset: 0x2D14A, size: 0x8, addend: 0x0, symName: __ZNKSt3__15dequeIiNS_9allocatorIiEEE6__sizeB7v160006Ev, symObjAddr: 0x9E40, symBinAddr: 0x10000DD20, symSize: 0x20 }
  - { offsetInCU: 0x2D170, offset: 0x2D170, size: 0x8, addend: 0x0, symName: __ZNKSt3__117__compressed_pairImNS_9allocatorIiEEE5firstB7v160006Ev, symObjAddr: 0x9E60, symBinAddr: 0x10000DD40, symSize: 0x20 }
  - { offsetInCU: 0x2D196, offset: 0x2D196, size: 0x8, addend: 0x0, symName: __ZNSt3__19allocatorIiE7destroyB7v160006EPi, symObjAddr: 0x9EB0, symBinAddr: 0x10000DD90, symSize: 0x10 }
  - { offsetInCU: 0x2D1CA, offset: 0x2D1CA, size: 0x8, addend: 0x0, symName: __ZNSt3__117__compressed_pairImNS_9allocatorIiEEE5firstB7v160006Ev, symObjAddr: 0x9EC0, symBinAddr: 0x10000DDA0, symSize: 0x20 }
  - { offsetInCU: 0x2D1F0, offset: 0x2D1F0, size: 0x8, addend: 0x0, symName: __ZNSt3__114__split_bufferIPiNS_9allocatorIS1_EEE19__destruct_at_beginB7v160006EPS1_, symObjAddr: 0x9EE0, symBinAddr: 0x10000DDC0, symSize: 0x30 }
  - { offsetInCU: 0x2D224, offset: 0x2D224, size: 0x8, addend: 0x0, symName: __ZNSt3__114__split_bufferIPiNS_9allocatorIS1_EEE19__destruct_at_beginEPS1_NS_17integral_constantIbLb1EEE, symObjAddr: 0x9F10, symBinAddr: 0x10000DDF0, symSize: 0x20 }
  - { offsetInCU: 0x2D265, offset: 0x2D265, size: 0x8, addend: 0x0, symName: __ZNSt3__19allocatorIiE10deallocateB7v160006EPim, symObjAddr: 0x9F30, symBinAddr: 0x10000DE10, symSize: 0x40 }
  - { offsetInCU: 0x2D2A7, offset: 0x2D2A7, size: 0x8, addend: 0x0, symName: __ZNSt3__117__compressed_pairImNS_9allocatorIiEEE6secondB7v160006Ev, symObjAddr: 0x9F70, symBinAddr: 0x10000DE50, symSize: 0x20 }
  - { offsetInCU: 0x2D2CD, offset: 0x2D2CD, size: 0x8, addend: 0x0, symName: __ZNSt3__122__compressed_pair_elemINS_9allocatorIiEELi1ELb1EE5__getB7v160006Ev, symObjAddr: 0x9F90, symBinAddr: 0x10000DE70, symSize: 0x10 }
  - { offsetInCU: 0x2D2F3, offset: 0x2D2F3, size: 0x8, addend: 0x0, symName: __ZNSt3__114__split_bufferIPiNS_9allocatorIS1_EEED2Ev, symObjAddr: 0x9FA0, symBinAddr: 0x10000DE80, symSize: 0x70 }
  - { offsetInCU: 0x2D31F, offset: 0x2D31F, size: 0x8, addend: 0x0, symName: __ZNSt3__114__split_bufferIPiNS_9allocatorIS1_EEE5clearB7v160006Ev, symObjAddr: 0xA010, symBinAddr: 0x10000DEF0, symSize: 0x20 }
  - { offsetInCU: 0x2D345, offset: 0x2D345, size: 0x8, addend: 0x0, symName: __ZNSt3__116allocator_traitsINS_9allocatorIPiEEE10deallocateB7v160006ERS3_PS2_m, symObjAddr: 0xA030, symBinAddr: 0x10000DF10, symSize: 0x30 }
  - { offsetInCU: 0x2D387, offset: 0x2D387, size: 0x8, addend: 0x0, symName: __ZNSt3__114__split_bufferIPiNS_9allocatorIS1_EEE7__allocB7v160006Ev, symObjAddr: 0xA060, symBinAddr: 0x10000DF40, symSize: 0x20 }
  - { offsetInCU: 0x2D3AD, offset: 0x2D3AD, size: 0x8, addend: 0x0, symName: __ZNKSt3__114__split_bufferIPiNS_9allocatorIS1_EEE8capacityB7v160006Ev, symObjAddr: 0xA080, symBinAddr: 0x10000DF60, symSize: 0x30 }
  - { offsetInCU: 0x2D3D3, offset: 0x2D3D3, size: 0x8, addend: 0x0, symName: __ZNSt3__114__split_bufferIPiNS_9allocatorIS1_EEE17__destruct_at_endB7v160006EPS1_, symObjAddr: 0xA0B0, symBinAddr: 0x10000DF90, symSize: 0x30 }
  - { offsetInCU: 0x2D407, offset: 0x2D407, size: 0x8, addend: 0x0, symName: __ZNSt3__114__split_bufferIPiNS_9allocatorIS1_EEE17__destruct_at_endB7v160006EPS1_NS_17integral_constantIbLb0EEE, symObjAddr: 0xA0E0, symBinAddr: 0x10000DFC0, symSize: 0x80 }
  - { offsetInCU: 0x2D448, offset: 0x2D448, size: 0x8, addend: 0x0, symName: __ZNSt3__116allocator_traitsINS_9allocatorIPiEEE7destroyB7v160006IS2_vEEvRS3_PT_, symObjAddr: 0xA160, symBinAddr: 0x10000E040, symSize: 0x30 }
  - { offsetInCU: 0x2D485, offset: 0x2D485, size: 0x8, addend: 0x0, symName: __ZNSt3__19allocatorIPiE7destroyB7v160006EPS1_, symObjAddr: 0xA1A0, symBinAddr: 0x10000E080, symSize: 0x10 }
  - { offsetInCU: 0x2D4B9, offset: 0x2D4B9, size: 0x8, addend: 0x0, symName: __ZNSt3__19allocatorIPiE10deallocateB7v160006EPS1_m, symObjAddr: 0xA1B0, symBinAddr: 0x10000E090, symSize: 0x40 }
  - { offsetInCU: 0x2D4FB, offset: 0x2D4FB, size: 0x8, addend: 0x0, symName: __ZNSt3__117__compressed_pairIPPiNS_9allocatorIS1_EEE6secondB7v160006Ev, symObjAddr: 0xA1F0, symBinAddr: 0x10000E0D0, symSize: 0x20 }
  - { offsetInCU: 0x2D521, offset: 0x2D521, size: 0x8, addend: 0x0, symName: __ZNSt3__122__compressed_pair_elemINS_9allocatorIPiEELi1ELb1EE5__getB7v160006Ev, symObjAddr: 0xA210, symBinAddr: 0x10000E0F0, symSize: 0x10 }
  - { offsetInCU: 0x2D547, offset: 0x2D547, size: 0x8, addend: 0x0, symName: __ZNKSt3__114__split_bufferIPiNS_9allocatorIS1_EEE9__end_capB7v160006Ev, symObjAddr: 0xA220, symBinAddr: 0x10000E100, symSize: 0x20 }
  - { offsetInCU: 0x2D56D, offset: 0x2D56D, size: 0x8, addend: 0x0, symName: __ZNKSt3__117__compressed_pairIPPiNS_9allocatorIS1_EEE5firstB7v160006Ev, symObjAddr: 0xA240, symBinAddr: 0x10000E120, symSize: 0x20 }
  - { offsetInCU: 0x2D593, offset: 0x2D593, size: 0x8, addend: 0x0, symName: __ZNKSt3__122__compressed_pair_elemIPPiLi0ELb0EE5__getB7v160006Ev, symObjAddr: 0xA260, symBinAddr: 0x10000E140, symSize: 0x10 }
  - { offsetInCU: 0x2D5B9, offset: 0x2D5B9, size: 0x8, addend: 0x0, symName: __ZNSt3__15stackI5ValueNS_5dequeIS1_NS_9allocatorIS1_EEEEED2Ev, symObjAddr: 0xA270, symBinAddr: 0x10000E150, symSize: 0x20 }
  - { offsetInCU: 0x2D5E5, offset: 0x2D5E5, size: 0x8, addend: 0x0, symName: __ZNSt3__15dequeI5ValueNS_9allocatorIS1_EEED1B7v160006Ev, symObjAddr: 0xA290, symBinAddr: 0x10000E170, symSize: 0x20 }
  - { offsetInCU: 0x2D60F, offset: 0x2D60F, size: 0x8, addend: 0x0, symName: __ZNSt3__15dequeI5ValueNS_9allocatorIS1_EEED2B7v160006Ev, symObjAddr: 0xA2B0, symBinAddr: 0x10000E190, symSize: 0x80 }
  - { offsetInCU: 0x2D665, offset: 0x2D665, size: 0x8, addend: 0x0, symName: __ZNSt3__15dequeI5ValueNS_9allocatorIS1_EEE5clearEv, symObjAddr: 0xA330, symBinAddr: 0x10000E210, symSize: 0x180 }
  - { offsetInCU: 0x2D6C0, offset: 0x2D6C0, size: 0x8, addend: 0x0, symName: __ZNSt3__114__split_bufferIP5ValueNS_9allocatorIS2_EEE5beginB7v160006Ev, symObjAddr: 0xA4B0, symBinAddr: 0x10000E390, symSize: 0x20 }
  - { offsetInCU: 0x2D6E6, offset: 0x2D6E6, size: 0x8, addend: 0x0, symName: __ZNSt3__114__split_bufferIP5ValueNS_9allocatorIS2_EEE3endB7v160006Ev, symObjAddr: 0xA4D0, symBinAddr: 0x10000E3B0, symSize: 0x20 }
  - { offsetInCU: 0x2D70C, offset: 0x2D70C, size: 0x8, addend: 0x0, symName: __ZNSt3__116allocator_traitsINS_9allocatorI5ValueEEE10deallocateB7v160006ERS3_PS2_m, symObjAddr: 0xA4F0, symBinAddr: 0x10000E3D0, symSize: 0x30 }
  - { offsetInCU: 0x2D74E, offset: 0x2D74E, size: 0x8, addend: 0x0, symName: __ZNSt3__15dequeI5ValueNS_9allocatorIS1_EEE7__allocB7v160006Ev, symObjAddr: 0xA520, symBinAddr: 0x10000E400, symSize: 0x20 }
  - { offsetInCU: 0x2D774, offset: 0x2D774, size: 0x8, addend: 0x0, symName: __ZNSt3__114__split_bufferIP5ValueNS_9allocatorIS2_EEED1Ev, symObjAddr: 0xA540, symBinAddr: 0x10000E420, symSize: 0x20 }
  - { offsetInCU: 0x2D7A0, offset: 0x2D7A0, size: 0x8, addend: 0x0, symName: __ZNSt3__15dequeI5ValueNS_9allocatorIS1_EEE5beginB7v160006Ev, symObjAddr: 0xA560, symBinAddr: 0x10000E440, symSize: 0xD0 }
  - { offsetInCU: 0x2D7D5, offset: 0x2D7D5, size: 0x8, addend: 0x0, symName: __ZNSt3__15dequeI5ValueNS_9allocatorIS1_EEE3endB7v160006Ev, symObjAddr: 0xA630, symBinAddr: 0x10000E510, symSize: 0xC0 }
  - { offsetInCU: 0x2D819, offset: 0x2D819, size: 0x8, addend: 0x0, symName: __ZNSt3__116allocator_traitsINS_9allocatorI5ValueEEE7destroyB7v160006IS2_vEEvRS3_PT_, symObjAddr: 0xA720, symBinAddr: 0x10000E600, symSize: 0x30 }
  - { offsetInCU: 0x2D856, offset: 0x2D856, size: 0x8, addend: 0x0, symName: __ZNKSt3__116__deque_iteratorI5ValuePS1_RS1_PS2_lLl73EEdeB7v160006Ev, symObjAddr: 0xA750, symBinAddr: 0x10000E630, symSize: 0x20 }
  - { offsetInCU: 0x2D87C, offset: 0x2D87C, size: 0x8, addend: 0x0, symName: __ZNSt3__116__deque_iteratorI5ValuePS1_RS1_PS2_lLl73EEppB7v160006Ev, symObjAddr: 0xA770, symBinAddr: 0x10000E650, symSize: 0x60 }
  - { offsetInCU: 0x2D8A2, offset: 0x2D8A2, size: 0x8, addend: 0x0, symName: __ZNSt3__15dequeI5ValueNS_9allocatorIS1_EEE6__sizeB7v160006Ev, symObjAddr: 0xA7D0, symBinAddr: 0x10000E6B0, symSize: 0x20 }
  - { offsetInCU: 0x2D8C8, offset: 0x2D8C8, size: 0x8, addend: 0x0, symName: __ZNKSt3__114__split_bufferIP5ValueNS_9allocatorIS2_EEE4sizeB7v160006Ev, symObjAddr: 0xA7F0, symBinAddr: 0x10000E6D0, symSize: 0x20 }
  - { offsetInCU: 0x2D8EE, offset: 0x2D8EE, size: 0x8, addend: 0x0, symName: __ZNSt3__114__split_bufferIP5ValueNS_9allocatorIS2_EEE5frontB7v160006Ev, symObjAddr: 0xA810, symBinAddr: 0x10000E6F0, symSize: 0x20 }
  - { offsetInCU: 0x2D914, offset: 0x2D914, size: 0x8, addend: 0x0, symName: __ZNSt3__114__split_bufferIP5ValueNS_9allocatorIS2_EEE9pop_frontB7v160006Ev, symObjAddr: 0xA830, symBinAddr: 0x10000E710, symSize: 0x30 }
  - { offsetInCU: 0x2D93A, offset: 0x2D93A, size: 0x8, addend: 0x0, symName: __ZNKSt3__114__split_bufferIP5ValueNS_9allocatorIS2_EEE5emptyB7v160006Ev, symObjAddr: 0xA860, symBinAddr: 0x10000E740, symSize: 0x20 }
  - { offsetInCU: 0x2D960, offset: 0x2D960, size: 0x8, addend: 0x0, symName: __ZNSt3__116__deque_iteratorI5ValuePS1_RS1_PS2_lLl73EEC1B7v160006ES4_S2_, symObjAddr: 0xA880, symBinAddr: 0x10000E760, symSize: 0x30 }
  - { offsetInCU: 0x2D9A8, offset: 0x2D9A8, size: 0x8, addend: 0x0, symName: __ZNSt3__116__deque_iteratorI5ValuePS1_RS1_PS2_lLl73EEC2B7v160006ES4_S2_, symObjAddr: 0xA8B0, symBinAddr: 0x10000E790, symSize: 0x30 }
  - { offsetInCU: 0x2D9F0, offset: 0x2D9F0, size: 0x8, addend: 0x0, symName: __ZNKSt3__15dequeI5ValueNS_9allocatorIS1_EEE4sizeB7v160006Ev, symObjAddr: 0xA8E0, symBinAddr: 0x10000E7C0, symSize: 0x20 }
  - { offsetInCU: 0x2DA16, offset: 0x2DA16, size: 0x8, addend: 0x0, symName: __ZNKSt3__15dequeI5ValueNS_9allocatorIS1_EEE6__sizeB7v160006Ev, symObjAddr: 0xA900, symBinAddr: 0x10000E7E0, symSize: 0x20 }
  - { offsetInCU: 0x2DA3C, offset: 0x2DA3C, size: 0x8, addend: 0x0, symName: __ZNKSt3__117__compressed_pairImNS_9allocatorI5ValueEEE5firstB7v160006Ev, symObjAddr: 0xA920, symBinAddr: 0x10000E800, symSize: 0x20 }
  - { offsetInCU: 0x2DA62, offset: 0x2DA62, size: 0x8, addend: 0x0, symName: __ZNSt3__19allocatorI5ValueE7destroyB7v160006EPS1_, symObjAddr: 0xA970, symBinAddr: 0x10000E850, symSize: 0x20 }
  - { offsetInCU: 0x2DA96, offset: 0x2DA96, size: 0x8, addend: 0x0, symName: __ZN5ValueD1Ev, symObjAddr: 0xA990, symBinAddr: 0x10000E870, symSize: 0x20 }
  - { offsetInCU: 0x2DAC2, offset: 0x2DAC2, size: 0x8, addend: 0x0, symName: __ZN5ValueD2Ev, symObjAddr: 0xA9B0, symBinAddr: 0x10000E890, symSize: 0x20 }
  - { offsetInCU: 0x2DAEE, offset: 0x2DAEE, size: 0x8, addend: 0x0, symName: __ZNSt3__117__compressed_pairImNS_9allocatorI5ValueEEE5firstB7v160006Ev, symObjAddr: 0xA9D0, symBinAddr: 0x10000E8B0, symSize: 0x20 }
  - { offsetInCU: 0x2DB14, offset: 0x2DB14, size: 0x8, addend: 0x0, symName: __ZNSt3__114__split_bufferIP5ValueNS_9allocatorIS2_EEE19__destruct_at_beginB7v160006EPS2_, symObjAddr: 0xA9F0, symBinAddr: 0x10000E8D0, symSize: 0x30 }
  - { offsetInCU: 0x2DB48, offset: 0x2DB48, size: 0x8, addend: 0x0, symName: __ZNSt3__114__split_bufferIP5ValueNS_9allocatorIS2_EEE19__destruct_at_beginEPS2_NS_17integral_constantIbLb1EEE, symObjAddr: 0xAA20, symBinAddr: 0x10000E900, symSize: 0x20 }
  - { offsetInCU: 0x2DB89, offset: 0x2DB89, size: 0x8, addend: 0x0, symName: __ZNSt3__19allocatorI5ValueE10deallocateB7v160006EPS1_m, symObjAddr: 0xAA40, symBinAddr: 0x10000E920, symSize: 0x40 }
  - { offsetInCU: 0x2DBCB, offset: 0x2DBCB, size: 0x8, addend: 0x0, symName: __ZNSt3__117__compressed_pairImNS_9allocatorI5ValueEEE6secondB7v160006Ev, symObjAddr: 0xAA80, symBinAddr: 0x10000E960, symSize: 0x20 }
  - { offsetInCU: 0x2DBF1, offset: 0x2DBF1, size: 0x8, addend: 0x0, symName: __ZNSt3__122__compressed_pair_elemINS_9allocatorI5ValueEELi1ELb1EE5__getB7v160006Ev, symObjAddr: 0xAAA0, symBinAddr: 0x10000E980, symSize: 0x10 }
  - { offsetInCU: 0x2DC17, offset: 0x2DC17, size: 0x8, addend: 0x0, symName: __ZNSt3__114__split_bufferIP5ValueNS_9allocatorIS2_EEED2Ev, symObjAddr: 0xAAB0, symBinAddr: 0x10000E990, symSize: 0x70 }
  - { offsetInCU: 0x2DC43, offset: 0x2DC43, size: 0x8, addend: 0x0, symName: __ZNSt3__114__split_bufferIP5ValueNS_9allocatorIS2_EEE5clearB7v160006Ev, symObjAddr: 0xAB20, symBinAddr: 0x10000EA00, symSize: 0x20 }
  - { offsetInCU: 0x2DC69, offset: 0x2DC69, size: 0x8, addend: 0x0, symName: __ZNSt3__116allocator_traitsINS_9allocatorIP5ValueEEE10deallocateB7v160006ERS4_PS3_m, symObjAddr: 0xAB40, symBinAddr: 0x10000EA20, symSize: 0x30 }
  - { offsetInCU: 0x2DCAB, offset: 0x2DCAB, size: 0x8, addend: 0x0, symName: __ZNSt3__114__split_bufferIP5ValueNS_9allocatorIS2_EEE7__allocB7v160006Ev, symObjAddr: 0xAB70, symBinAddr: 0x10000EA50, symSize: 0x20 }
  - { offsetInCU: 0x2DCD1, offset: 0x2DCD1, size: 0x8, addend: 0x0, symName: __ZNKSt3__114__split_bufferIP5ValueNS_9allocatorIS2_EEE8capacityB7v160006Ev, symObjAddr: 0xAB90, symBinAddr: 0x10000EA70, symSize: 0x30 }
  - { offsetInCU: 0x2DCF7, offset: 0x2DCF7, size: 0x8, addend: 0x0, symName: __ZNSt3__114__split_bufferIP5ValueNS_9allocatorIS2_EEE17__destruct_at_endB7v160006EPS2_, symObjAddr: 0xABC0, symBinAddr: 0x10000EAA0, symSize: 0x30 }
  - { offsetInCU: 0x2DD2B, offset: 0x2DD2B, size: 0x8, addend: 0x0, symName: __ZNSt3__114__split_bufferIP5ValueNS_9allocatorIS2_EEE17__destruct_at_endB7v160006EPS2_NS_17integral_constantIbLb0EEE, symObjAddr: 0xABF0, symBinAddr: 0x10000EAD0, symSize: 0x80 }
  - { offsetInCU: 0x2DD6C, offset: 0x2DD6C, size: 0x8, addend: 0x0, symName: __ZNSt3__116allocator_traitsINS_9allocatorIP5ValueEEE7destroyB7v160006IS3_vEEvRS4_PT_, symObjAddr: 0xAC70, symBinAddr: 0x10000EB50, symSize: 0x30 }
  - { offsetInCU: 0x2DDA9, offset: 0x2DDA9, size: 0x8, addend: 0x0, symName: __ZNSt3__19allocatorIP5ValueE7destroyB7v160006EPS2_, symObjAddr: 0xACB0, symBinAddr: 0x10000EB90, symSize: 0x10 }
  - { offsetInCU: 0x2DDDD, offset: 0x2DDDD, size: 0x8, addend: 0x0, symName: __ZNSt3__19allocatorIP5ValueE10deallocateB7v160006EPS2_m, symObjAddr: 0xACC0, symBinAddr: 0x10000EBA0, symSize: 0x40 }
  - { offsetInCU: 0x2DE1F, offset: 0x2DE1F, size: 0x8, addend: 0x0, symName: __ZNSt3__117__compressed_pairIPP5ValueNS_9allocatorIS2_EEE6secondB7v160006Ev, symObjAddr: 0xAD00, symBinAddr: 0x10000EBE0, symSize: 0x20 }
  - { offsetInCU: 0x2DE45, offset: 0x2DE45, size: 0x8, addend: 0x0, symName: __ZNSt3__122__compressed_pair_elemINS_9allocatorIP5ValueEELi1ELb1EE5__getB7v160006Ev, symObjAddr: 0xAD20, symBinAddr: 0x10000EC00, symSize: 0x10 }
  - { offsetInCU: 0x2DE6B, offset: 0x2DE6B, size: 0x8, addend: 0x0, symName: __ZNKSt3__114__split_bufferIP5ValueNS_9allocatorIS2_EEE9__end_capB7v160006Ev, symObjAddr: 0xAD30, symBinAddr: 0x10000EC10, symSize: 0x20 }
  - { offsetInCU: 0x2DE91, offset: 0x2DE91, size: 0x8, addend: 0x0, symName: __ZNKSt3__117__compressed_pairIPP5ValueNS_9allocatorIS2_EEE5firstB7v160006Ev, symObjAddr: 0xAD50, symBinAddr: 0x10000EC30, symSize: 0x20 }
  - { offsetInCU: 0x2DEB7, offset: 0x2DEB7, size: 0x8, addend: 0x0, symName: __ZNKSt3__122__compressed_pair_elemIPP5ValueLi0ELb0EE5__getB7v160006Ev, symObjAddr: 0xAD70, symBinAddr: 0x10000EC50, symSize: 0x10 }
  - { offsetInCU: 0x2DEDD, offset: 0x2DEDD, size: 0x8, addend: 0x0, symName: __ZNSt3__113unordered_mapINS_12basic_stringIcNS_11char_traitsIcEENS_9allocatorIcEEEEN19Symbol_and_Assembly10SymbolInfoENS_4hashIS6_EENS_8equal_toIS6_EENS4_INS_4pairIKS6_S8_EEEEED2B7v160006Ev, symObjAddr: 0xAD80, symBinAddr: 0x10000EC60, symSize: 0x20 }
  - { offsetInCU: 0x2DF07, offset: 0x2DF07, size: 0x8, addend: 0x0, symName: __ZNSt3__112__hash_tableINS_17__hash_value_typeINS_12basic_stringIcNS_11char_traitsIcEENS_9allocatorIcEEEEN19Symbol_and_Assembly10SymbolInfoEEENS_22__unordered_map_hasherIS7_SA_NS_4hashIS7_EENS_8equal_toIS7_EELb1EEENS_21__unordered_map_equalIS7_SA_SF_SD_Lb1EEENS5_ISA_EEED1Ev, symObjAddr: 0xADA0, symBinAddr: 0x10000EC80, symSize: 0x20 }
  - { offsetInCU: 0x2DF33, offset: 0x2DF33, size: 0x8, addend: 0x0, symName: __ZNSt3__112__hash_tableINS_17__hash_value_typeINS_12basic_stringIcNS_11char_traitsIcEENS_9allocatorIcEEEEN19Symbol_and_Assembly10SymbolInfoEEENS_22__unordered_map_hasherIS7_SA_NS_4hashIS7_EENS_8equal_toIS7_EELb1EEENS_21__unordered_map_equalIS7_SA_SF_SD_Lb1EEENS5_ISA_EEED2Ev, symObjAddr: 0xADC0, symBinAddr: 0x10000ECA0, symSize: 0x50 }
  - { offsetInCU: 0x2DF5F, offset: 0x2DF5F, size: 0x8, addend: 0x0, symName: __ZNSt3__112__hash_tableINS_17__hash_value_typeINS_12basic_stringIcNS_11char_traitsIcEENS_9allocatorIcEEEEN19Symbol_and_Assembly10SymbolInfoEEENS_22__unordered_map_hasherIS7_SA_NS_4hashIS7_EENS_8equal_toIS7_EELb1EEENS_21__unordered_map_equalIS7_SA_SF_SD_Lb1EEENS5_ISA_EEE17__deallocate_nodeEPNS_16__hash_node_baseIPNS_11__hash_nodeISA_PvEEEE, symObjAddr: 0xAE10, symBinAddr: 0x10000ECF0, symSize: 0xA0 }
  - { offsetInCU: 0x2DFC9, offset: 0x2DFC9, size: 0x8, addend: 0x0, symName: __ZNSt3__117__compressed_pairINS_16__hash_node_baseIPNS_11__hash_nodeINS_17__hash_value_typeINS_12basic_stringIcNS_11char_traitsIcEENS_9allocatorIcEEEEN19Symbol_and_Assembly10SymbolInfoEEEPvEEEENS7_ISE_EEE5firstB7v160006Ev, symObjAddr: 0xAEB0, symBinAddr: 0x10000ED90, symSize: 0x20 }
  - { offsetInCU: 0x2DFEF, offset: 0x2DFEF, size: 0x8, addend: 0x0, symName: __ZNSt3__110unique_ptrIA_PNS_16__hash_node_baseIPNS_11__hash_nodeINS_17__hash_value_typeINS_12basic_stringIcNS_11char_traitsIcEENS_9allocatorIcEEEEN19Symbol_and_Assembly10SymbolInfoEEEPvEEEENS_25__bucket_list_deallocatorINS7_ISH_EEEEED1B7v160006Ev, symObjAddr: 0xAEE0, symBinAddr: 0x10000EDC0, symSize: 0x20 }
  - { offsetInCU: 0x2E019, offset: 0x2E019, size: 0x8, addend: 0x0, symName: __ZNSt3__112__hash_tableINS_17__hash_value_typeINS_12basic_stringIcNS_11char_traitsIcEENS_9allocatorIcEEEEN19Symbol_and_Assembly10SymbolInfoEEENS_22__unordered_map_hasherIS7_SA_NS_4hashIS7_EENS_8equal_toIS7_EELb1EEENS_21__unordered_map_equalIS7_SA_SF_SD_Lb1EEENS5_ISA_EEE12__node_allocB7v160006Ev, symObjAddr: 0xAF00, symBinAddr: 0x10000EDE0, symSize: 0x20 }
  - { offsetInCU: 0x2E03F, offset: 0x2E03F, size: 0x8, addend: 0x0, symName: __ZNSt3__116__hash_node_baseIPNS_11__hash_nodeINS_17__hash_value_typeINS_12basic_stringIcNS_11char_traitsIcEENS_9allocatorIcEEEEN19Symbol_and_Assembly10SymbolInfoEEEPvEEE8__upcastB7v160006Ev, symObjAddr: 0xAF20, symBinAddr: 0x10000EE00, symSize: 0x20 }
  - { offsetInCU: 0x2E065, offset: 0x2E065, size: 0x8, addend: 0x0, symName: __ZNSt3__116allocator_traitsINS_9allocatorINS_11__hash_nodeINS_17__hash_value_typeINS_12basic_stringIcNS_11char_traitsIcEENS1_IcEEEEN19Symbol_and_Assembly10SymbolInfoEEEPvEEEEE7destroyB7v160006INS_4pairIKS8_SA_EEvvEEvRSE_PT_, symObjAddr: 0xAF40, symBinAddr: 0x10000EE20, symSize: 0x20 }
  - { offsetInCU: 0x2E0A0, offset: 0x2E0A0, size: 0x8, addend: 0x0, symName: __ZNSt3__122__hash_key_value_typesINS_17__hash_value_typeINS_12basic_stringIcNS_11char_traitsIcEENS_9allocatorIcEEEEN19Symbol_and_Assembly10SymbolInfoEEEE9__get_ptrB7v160006ERSA_, symObjAddr: 0xAF60, symBinAddr: 0x10000EE40, symSize: 0x20 }
  - { offsetInCU: 0x2E0C3, offset: 0x2E0C3, size: 0x8, addend: 0x0, symName: __ZNSt3__116allocator_traitsINS_9allocatorINS_11__hash_nodeINS_17__hash_value_typeINS_12basic_stringIcNS_11char_traitsIcEENS1_IcEEEEN19Symbol_and_Assembly10SymbolInfoEEEPvEEEEE10deallocateB7v160006ERSE_PSD_m, symObjAddr: 0xAF80, symBinAddr: 0x10000EE60, symSize: 0x30 }
  - { offsetInCU: 0x2E105, offset: 0x2E105, size: 0x8, addend: 0x0, symName: __ZNSt3__117__compressed_pairINS_16__hash_node_baseIPNS_11__hash_nodeINS_17__hash_value_typeINS_12basic_stringIcNS_11char_traitsIcEENS_9allocatorIcEEEEN19Symbol_and_Assembly10SymbolInfoEEEPvEEEENS7_ISE_EEE6secondB7v160006Ev, symObjAddr: 0xAFB0, symBinAddr: 0x10000EE90, symSize: 0x20 }
  - { offsetInCU: 0x2E12B, offset: 0x2E12B, size: 0x8, addend: 0x0, symName: __ZNSt3__122__compressed_pair_elemINS_9allocatorINS_11__hash_nodeINS_17__hash_value_typeINS_12basic_stringIcNS_11char_traitsIcEENS1_IcEEEEN19Symbol_and_Assembly10SymbolInfoEEEPvEEEELi1ELb1EE5__getB7v160006Ev, symObjAddr: 0xAFD0, symBinAddr: 0x10000EEB0, symSize: 0x10 }
  - { offsetInCU: 0x2E151, offset: 0x2E151, size: 0x8, addend: 0x0, symName: __ZNSt3__114pointer_traitsIPNS_16__hash_node_baseIPNS_11__hash_nodeINS_17__hash_value_typeINS_12basic_stringIcNS_11char_traitsIcEENS_9allocatorIcEEEEN19Symbol_and_Assembly10SymbolInfoEEEPvEEEEE10pointer_toB7v160006ERSG_, symObjAddr: 0xAFE0, symBinAddr: 0x10000EEC0, symSize: 0x10 }
  - { offsetInCU: 0x2E174, offset: 0x2E174, size: 0x8, addend: 0x0, symName: __ZNSt3__14pairIKNS_12basic_stringIcNS_11char_traitsIcEENS_9allocatorIcEEEEN19Symbol_and_Assembly10SymbolInfoEED1Ev, symObjAddr: 0xAFF0, symBinAddr: 0x10000EED0, symSize: 0x20 }
  - { offsetInCU: 0x2E1A0, offset: 0x2E1A0, size: 0x8, addend: 0x0, symName: __ZNSt3__14pairIKNS_12basic_stringIcNS_11char_traitsIcEENS_9allocatorIcEEEEN19Symbol_and_Assembly10SymbolInfoEED2Ev, symObjAddr: 0xB010, symBinAddr: 0x10000EEF0, symSize: 0x30 }
  - { offsetInCU: 0x2E1D2, offset: 0x2E1D2, size: 0x8, addend: 0x0, symName: __ZN19Symbol_and_Assembly10SymbolInfoD1Ev, symObjAddr: 0xB040, symBinAddr: 0x10000EF20, symSize: 0x20 }
  - { offsetInCU: 0x2E1FE, offset: 0x2E1FE, size: 0x8, addend: 0x0, symName: __ZN19Symbol_and_Assembly10SymbolInfoD2Ev, symObjAddr: 0xB060, symBinAddr: 0x10000EF40, symSize: 0x20 }
  - { offsetInCU: 0x2E22A, offset: 0x2E22A, size: 0x8, addend: 0x0, symName: __ZNSt3__117__hash_value_typeINS_12basic_stringIcNS_11char_traitsIcEENS_9allocatorIcEEEEN19Symbol_and_Assembly10SymbolInfoEE11__get_valueB7v160006Ev, symObjAddr: 0xB080, symBinAddr: 0x10000EF60, symSize: 0x20 }
  - { offsetInCU: 0x2E250, offset: 0x2E250, size: 0x8, addend: 0x0, symName: __ZNSt3__19allocatorINS_11__hash_nodeINS_17__hash_value_typeINS_12basic_stringIcNS_11char_traitsIcEENS0_IcEEEEN19Symbol_and_Assembly10SymbolInfoEEEPvEEE10deallocateB7v160006EPSC_m, symObjAddr: 0xB0D0, symBinAddr: 0x10000EFB0, symSize: 0x40 }
  - { offsetInCU: 0x2E292, offset: 0x2E292, size: 0x8, addend: 0x0, symName: __ZNSt3__122__compressed_pair_elemINS_16__hash_node_baseIPNS_11__hash_nodeINS_17__hash_value_typeINS_12basic_stringIcNS_11char_traitsIcEENS_9allocatorIcEEEEN19Symbol_and_Assembly10SymbolInfoEEEPvEEEELi0ELb0EE5__getB7v160006Ev, symObjAddr: 0xB110, symBinAddr: 0x10000EFF0, symSize: 0x10 }
  - { offsetInCU: 0x2E2B8, offset: 0x2E2B8, size: 0x8, addend: 0x0, symName: __ZNSt3__110unique_ptrIA_PNS_16__hash_node_baseIPNS_11__hash_nodeINS_17__hash_value_typeINS_12basic_stringIcNS_11char_traitsIcEENS_9allocatorIcEEEEN19Symbol_and_Assembly10SymbolInfoEEEPvEEEENS_25__bucket_list_deallocatorINS7_ISH_EEEEED2B7v160006Ev, symObjAddr: 0xB120, symBinAddr: 0x10000F000, symSize: 0x20 }
  - { offsetInCU: 0x2E2E2, offset: 0x2E2E2, size: 0x8, addend: 0x0, symName: __ZNSt3__110unique_ptrIA_PNS_16__hash_node_baseIPNS_11__hash_nodeINS_17__hash_value_typeINS_12basic_stringIcNS_11char_traitsIcEENS_9allocatorIcEEEEN19Symbol_and_Assembly10SymbolInfoEEEPvEEEENS_25__bucket_list_deallocatorINS7_ISH_EEEEE5resetB7v160006EDn, symObjAddr: 0xB140, symBinAddr: 0x10000F020, symSize: 0x60 }
  - { offsetInCU: 0x2E323, offset: 0x2E323, size: 0x8, addend: 0x0, symName: __ZNSt3__117__compressed_pairIPPNS_16__hash_node_baseIPNS_11__hash_nodeINS_17__hash_value_typeINS_12basic_stringIcNS_11char_traitsIcEENS_9allocatorIcEEEEN19Symbol_and_Assembly10SymbolInfoEEEPvEEEENS_25__bucket_list_deallocatorINS7_ISH_EEEEE5firstB7v160006Ev, symObjAddr: 0xB1A0, symBinAddr: 0x10000F080, symSize: 0x20 }
  - { offsetInCU: 0x2E349, offset: 0x2E349, size: 0x8, addend: 0x0, symName: __ZNSt3__117__compressed_pairIPPNS_16__hash_node_baseIPNS_11__hash_nodeINS_17__hash_value_typeINS_12basic_stringIcNS_11char_traitsIcEENS_9allocatorIcEEEEN19Symbol_and_Assembly10SymbolInfoEEEPvEEEENS_25__bucket_list_deallocatorINS7_ISH_EEEEE6secondB7v160006Ev, symObjAddr: 0xB1C0, symBinAddr: 0x10000F0A0, symSize: 0x20 }
  - { offsetInCU: 0x2E36F, offset: 0x2E36F, size: 0x8, addend: 0x0, symName: __ZNSt3__125__bucket_list_deallocatorINS_9allocatorIPNS_16__hash_node_baseIPNS_11__hash_nodeINS_17__hash_value_typeINS_12basic_stringIcNS_11char_traitsIcEENS1_IcEEEEN19Symbol_and_Assembly10SymbolInfoEEEPvEEEEEEEclB7v160006EPSH_, symObjAddr: 0xB1E0, symBinAddr: 0x10000F0C0, symSize: 0x50 }
  - { offsetInCU: 0x2E3A4, offset: 0x2E3A4, size: 0x8, addend: 0x0, symName: __ZNSt3__122__compressed_pair_elemIPPNS_16__hash_node_baseIPNS_11__hash_nodeINS_17__hash_value_typeINS_12basic_stringIcNS_11char_traitsIcEENS_9allocatorIcEEEEN19Symbol_and_Assembly10SymbolInfoEEEPvEEEELi0ELb0EE5__getB7v160006Ev, symObjAddr: 0xB230, symBinAddr: 0x10000F110, symSize: 0x10 }
  - { offsetInCU: 0x2E3CA, offset: 0x2E3CA, size: 0x8, addend: 0x0, symName: __ZNSt3__122__compressed_pair_elemINS_25__bucket_list_deallocatorINS_9allocatorIPNS_16__hash_node_baseIPNS_11__hash_nodeINS_17__hash_value_typeINS_12basic_stringIcNS_11char_traitsIcEENS2_IcEEEEN19Symbol_and_Assembly10SymbolInfoEEEPvEEEEEEEELi1ELb0EE5__getB7v160006Ev, symObjAddr: 0xB240, symBinAddr: 0x10000F120, symSize: 0x10 }
  - { offsetInCU: 0x2E3F0, offset: 0x2E3F0, size: 0x8, addend: 0x0, symName: __ZNSt3__116allocator_traitsINS_9allocatorIPNS_16__hash_node_baseIPNS_11__hash_nodeINS_17__hash_value_typeINS_12basic_stringIcNS_11char_traitsIcEENS1_IcEEEEN19Symbol_and_Assembly10SymbolInfoEEEPvEEEEEEE10deallocateB7v160006ERSI_PSH_m, symObjAddr: 0xB250, symBinAddr: 0x10000F130, symSize: 0x30 }
  - { offsetInCU: 0x2E432, offset: 0x2E432, size: 0x8, addend: 0x0, symName: __ZNSt3__125__bucket_list_deallocatorINS_9allocatorIPNS_16__hash_node_baseIPNS_11__hash_nodeINS_17__hash_value_typeINS_12basic_stringIcNS_11char_traitsIcEENS1_IcEEEEN19Symbol_and_Assembly10SymbolInfoEEEPvEEEEEEE7__allocB7v160006Ev, symObjAddr: 0xB280, symBinAddr: 0x10000F160, symSize: 0x20 }
  - { offsetInCU: 0x2E458, offset: 0x2E458, size: 0x8, addend: 0x0, symName: __ZNSt3__125__bucket_list_deallocatorINS_9allocatorIPNS_16__hash_node_baseIPNS_11__hash_nodeINS_17__hash_value_typeINS_12basic_stringIcNS_11char_traitsIcEENS1_IcEEEEN19Symbol_and_Assembly10SymbolInfoEEEPvEEEEEEE4sizeB7v160006Ev, symObjAddr: 0xB2A0, symBinAddr: 0x10000F180, symSize: 0x20 }
  - { offsetInCU: 0x2E47E, offset: 0x2E47E, size: 0x8, addend: 0x0, symName: __ZNSt3__19allocatorIPNS_16__hash_node_baseIPNS_11__hash_nodeINS_17__hash_value_typeINS_12basic_stringIcNS_11char_traitsIcEENS0_IcEEEEN19Symbol_and_Assembly10SymbolInfoEEEPvEEEEE10deallocateB7v160006EPSG_m, symObjAddr: 0xB2C0, symBinAddr: 0x10000F1A0, symSize: 0x40 }
  - { offsetInCU: 0x2E4C0, offset: 0x2E4C0, size: 0x8, addend: 0x0, symName: __ZNSt3__117__compressed_pairImNS_9allocatorIPNS_16__hash_node_baseIPNS_11__hash_nodeINS_17__hash_value_typeINS_12basic_stringIcNS_11char_traitsIcEENS1_IcEEEEN19Symbol_and_Assembly10SymbolInfoEEEPvEEEEEEE6secondB7v160006Ev, symObjAddr: 0xB300, symBinAddr: 0x10000F1E0, symSize: 0x20 }
  - { offsetInCU: 0x2E4E6, offset: 0x2E4E6, size: 0x8, addend: 0x0, symName: __ZNSt3__122__compressed_pair_elemINS_9allocatorIPNS_16__hash_node_baseIPNS_11__hash_nodeINS_17__hash_value_typeINS_12basic_stringIcNS_11char_traitsIcEENS1_IcEEEEN19Symbol_and_Assembly10SymbolInfoEEEPvEEEEEELi1ELb1EE5__getB7v160006Ev, symObjAddr: 0xB320, symBinAddr: 0x10000F200, symSize: 0x10 }
  - { offsetInCU: 0x2E50C, offset: 0x2E50C, size: 0x8, addend: 0x0, symName: __ZNSt3__117__compressed_pairImNS_9allocatorIPNS_16__hash_node_baseIPNS_11__hash_nodeINS_17__hash_value_typeINS_12basic_stringIcNS_11char_traitsIcEENS1_IcEEEEN19Symbol_and_Assembly10SymbolInfoEEEPvEEEEEEE5firstB7v160006Ev, symObjAddr: 0xB330, symBinAddr: 0x10000F210, symSize: 0x20 }
  - { offsetInCU: 0x2E532, offset: 0x2E532, size: 0x8, addend: 0x0, symName: __ZNSt3__16vectorIN19Symbol_and_Assembly11InstructionENS_9allocatorIS2_EEED2B7v160006Ev, symObjAddr: 0xB350, symBinAddr: 0x10000F230, symSize: 0x40 }
  - { offsetInCU: 0x2E55C, offset: 0x2E55C, size: 0x8, addend: 0x0, symName: __ZNSt3__16vectorIN19Symbol_and_Assembly11InstructionENS_9allocatorIS2_EEE16__destroy_vectorC1ERS5_, symObjAddr: 0xB390, symBinAddr: 0x10000F270, symSize: 0x30 }
  - { offsetInCU: 0x2E595, offset: 0x2E595, size: 0x8, addend: 0x0, symName: __ZNSt3__16vectorIN19Symbol_and_Assembly11InstructionENS_9allocatorIS2_EEE16__destroy_vectorclB7v160006Ev, symObjAddr: 0xB3C0, symBinAddr: 0x10000F2A0, symSize: 0x90 }
  - { offsetInCU: 0x2E5BB, offset: 0x2E5BB, size: 0x8, addend: 0x0, symName: __ZNSt3__16vectorIN19Symbol_and_Assembly11InstructionENS_9allocatorIS2_EEE16__destroy_vectorC2ERS5_, symObjAddr: 0xB450, symBinAddr: 0x10000F330, symSize: 0x20 }
  - { offsetInCU: 0x2E5F4, offset: 0x2E5F4, size: 0x8, addend: 0x0, symName: __ZNSt3__16vectorIN19Symbol_and_Assembly11InstructionENS_9allocatorIS2_EEE7__clearB7v160006Ev, symObjAddr: 0xB480, symBinAddr: 0x10000F360, symSize: 0x20 }
  - { offsetInCU: 0x2E61A, offset: 0x2E61A, size: 0x8, addend: 0x0, symName: __ZNSt3__16vectorIN19Symbol_and_Assembly11InstructionENS_9allocatorIS2_EEE22__base_destruct_at_endB7v160006EPS2_, symObjAddr: 0xB4A0, symBinAddr: 0x10000F380, symSize: 0x80 }
  - { offsetInCU: 0x2E65E, offset: 0x2E65E, size: 0x8, addend: 0x0, symName: __ZN16OutputRedirectorC2ERKNSt3__112basic_stringIcNS0_11char_traitsIcEENS0_9allocatorIcEEEE, symObjAddr: 0xB520, symBinAddr: 0x10000F400, symSize: 0xF0 }
  - { offsetInCU: 0x2E696, offset: 0x2E696, size: 0x8, addend: 0x0, symName: __ZNSt3__114basic_ofstreamIcNS_11char_traitsIcEEEC1Ev, symObjAddr: 0xB610, symBinAddr: 0x10000F4F0, symSize: 0xE0 }
  - { offsetInCU: 0x2E6C2, offset: 0x2E6C2, size: 0x8, addend: 0x0, symName: __ZNKSt3__19basic_iosIcNS_11char_traitsIcEEE5rdbufB7v160006Ev, symObjAddr: 0xB6F0, symBinAddr: 0x10000F5D0, symSize: 0x20 }
  - { offsetInCU: 0x2E6EA, offset: 0x2E6EA, size: 0x8, addend: 0x0, symName: __ZNKSt3__114basic_ofstreamIcNS_11char_traitsIcEEE7is_openEv, symObjAddr: 0xB710, symBinAddr: 0x10000F5F0, symSize: 0x30 }
  - { offsetInCU: 0x2E712, offset: 0x2E712, size: 0x8, addend: 0x0, symName: __ZNSt3__19basic_iosIcNS_11char_traitsIcEEE5rdbufB7v160006EPNS_15basic_streambufIcS2_EE, symObjAddr: 0xB740, symBinAddr: 0x10000F620, symSize: 0x40 }
  - { offsetInCU: 0x2E758, offset: 0x2E758, size: 0x8, addend: 0x0, symName: __ZNKSt3__114basic_ofstreamIcNS_11char_traitsIcEEE5rdbufEv, symObjAddr: 0xB780, symBinAddr: 0x10000F660, symSize: 0x20 }
  - { offsetInCU: 0x2E780, offset: 0x2E780, size: 0x8, addend: 0x0, symName: __ZNSt3__19basic_iosIcNS_11char_traitsIcEEEC2B7v160006Ev, symObjAddr: 0xB7A0, symBinAddr: 0x10000F680, symSize: 0x40 }
  - { offsetInCU: 0x2E7AA, offset: 0x2E7AA, size: 0x8, addend: 0x0, symName: __ZNSt3__113basic_ostreamIcNS_11char_traitsIcEEEC2B7v160006EPNS_15basic_streambufIcS2_EE, symObjAddr: 0xB7E0, symBinAddr: 0x10000F6C0, symSize: 0x50 }
  - { offsetInCU: 0x2E7EF, offset: 0x2E7EF, size: 0x8, addend: 0x0, symName: __ZNSt3__18ios_baseC2B7v160006Ev, symObjAddr: 0xB830, symBinAddr: 0x10000F710, symSize: 0x20 }
  - { offsetInCU: 0x2E819, offset: 0x2E819, size: 0x8, addend: 0x0, symName: __ZNSt3__19basic_iosIcNS_11char_traitsIcEEE4initB7v160006EPNS_15basic_streambufIcS2_EE, symObjAddr: 0xB850, symBinAddr: 0x10000F730, symSize: 0x50 }
  - { offsetInCU: 0x2E850, offset: 0x2E850, size: 0x8, addend: 0x0, symName: __ZNSt3__111char_traitsIcE3eofEv, symObjAddr: 0xB8A0, symBinAddr: 0x10000F780, symSize: 0x10 }
  - { offsetInCU: 0x2E864, offset: 0x2E864, size: 0x8, addend: 0x0, symName: __ZNKSt3__18ios_base5rdbufB7v160006Ev, symObjAddr: 0xB8B0, symBinAddr: 0x10000F790, symSize: 0x20 }
  - { offsetInCU: 0x2E88A, offset: 0x2E88A, size: 0x8, addend: 0x0, symName: __ZNKSt3__113basic_filebufIcNS_11char_traitsIcEEE7is_openEv, symObjAddr: 0xB8D0, symBinAddr: 0x10000F7B0, symSize: 0x20 }
  - { offsetInCU: 0x2E8B2, offset: 0x2E8B2, size: 0x8, addend: 0x0, symName: __ZNSt3__18ios_base5rdbufB7v160006EPv, symObjAddr: 0xB8F0, symBinAddr: 0x10000F7D0, symSize: 0x30 }
  - { offsetInCU: 0x2E975, offset: 0x2E975, size: 0x8, addend: 0x0, symName: __ZNSt3__114basic_ifstreamIcNS_11char_traitsIcEEEC1ERKNS_12basic_stringIcS2_NS_9allocatorIcEEEEj, symObjAddr: 0xB920, symBinAddr: 0x10000F800, symSize: 0x160 }
  - { offsetInCU: 0x2E9BF, offset: 0x2E9BF, size: 0x8, addend: 0x0, symName: __ZNKSt3__19basic_iosIcNS_11char_traitsIcEEEcvbB7v160006Ev, symObjAddr: 0xBA80, symBinAddr: 0x10000F960, symSize: 0x30 }
  - { offsetInCU: 0x2EA41, offset: 0x2EA41, size: 0x8, addend: 0x0, symName: __ZNSt3__119basic_istringstreamIcNS_11char_traitsIcEENS_9allocatorIcEEEC1B7v160006ERKNS_12basic_stringIcS2_S4_EEj, symObjAddr: 0xBAB0, symBinAddr: 0x10000F990, symSize: 0xE0 }
  - { offsetInCU: 0x2EA89, offset: 0x2EA89, size: 0x8, addend: 0x0, symName: __ZNSt3__16vectorI5TokenNS_9allocatorIS1_EEE9push_backB7v160006EOS1_, symObjAddr: 0xBE80, symBinAddr: 0x10000FD60, symSize: 0x60 }
  - { offsetInCU: 0x2EAC0, offset: 0x2EAC0, size: 0x8, addend: 0x0, symName: __ZN14SyntaxAnalyzer17stringToTokenTypeERKNSt3__112basic_stringIcNS0_11char_traitsIcEENS0_9allocatorIcEEEE, symObjAddr: 0xBEE0, symBinAddr: 0x10000FDC0, symSize: 0x120 }
  - { offsetInCU: 0x2EAFB, offset: 0x2EAFB, size: 0x8, addend: 0x0, symName: __ZNSt3__119basic_istringstreamIcNS_11char_traitsIcEENS_9allocatorIcEEED1Ev, symObjAddr: 0xC000, symBinAddr: 0x10000FEE0, symSize: 0x40 }
  - { offsetInCU: 0x2EB28, offset: 0x2EB28, size: 0x8, addend: 0x0, symName: __ZNSt3__114basic_ifstreamIcNS_11char_traitsIcEEE5closeEv, symObjAddr: 0xC040, symBinAddr: 0x10000FF20, symSize: 0x50 }
  - { offsetInCU: 0x2EB56, offset: 0x2EB56, size: 0x8, addend: 0x0, symName: __ZNSt3__114basic_ifstreamIcNS_11char_traitsIcEEED1Ev, symObjAddr: 0xC090, symBinAddr: 0x10000FF70, symSize: 0x40 }
  - { offsetInCU: 0x2EB83, offset: 0x2EB83, size: 0x8, addend: 0x0, symName: __ZNSt3__113basic_istreamIcNS_11char_traitsIcEEEC2B7v160006EPNS_15basic_streambufIcS2_EE, symObjAddr: 0xC0D0, symBinAddr: 0x10000FFB0, symSize: 0x50 }
  - { offsetInCU: 0x2EBC8, offset: 0x2EBC8, size: 0x8, addend: 0x0, symName: __ZNSt3__113basic_filebufIcNS_11char_traitsIcEEE4openERKNS_12basic_stringIcS2_NS_9allocatorIcEEEEj, symObjAddr: 0xC120, symBinAddr: 0x100010000, symSize: 0x40 }
  - { offsetInCU: 0x2EC0C, offset: 0x2EC0C, size: 0x8, addend: 0x0, symName: __ZNSt3__19basic_iosIcNS_11char_traitsIcEEE8setstateB7v160006Ej, symObjAddr: 0xC160, symBinAddr: 0x100010040, symSize: 0x30 }
  - { offsetInCU: 0x2EC41, offset: 0x2EC41, size: 0x8, addend: 0x0, symName: __ZNSt3__18ios_base8setstateB7v160006Ej, symObjAddr: 0xC190, symBinAddr: 0x100010070, symSize: 0x30 }
  - { offsetInCU: 0x2EC78, offset: 0x2EC78, size: 0x8, addend: 0x0, symName: __ZNKSt3__19basic_iosIcNS_11char_traitsIcEEE4failB7v160006Ev, symObjAddr: 0xC1C0, symBinAddr: 0x1000100A0, symSize: 0x20 }
  - { offsetInCU: 0x2EC9E, offset: 0x2EC9E, size: 0x8, addend: 0x0, symName: __ZNKSt3__18ios_base4failB7v160006Ev, symObjAddr: 0xC1E0, symBinAddr: 0x1000100C0, symSize: 0x20 }
  - { offsetInCU: 0x2ECC6, offset: 0x2ECC6, size: 0x8, addend: 0x0, symName: __ZNSt3__115basic_stringbufIcNS_11char_traitsIcEENS_9allocatorIcEEEC1B7v160006ERKNS_12basic_stringIcS2_S4_EEj, symObjAddr: 0xC200, symBinAddr: 0x1000100E0, symSize: 0x30 }
  - { offsetInCU: 0x2ED0C, offset: 0x2ED0C, size: 0x8, addend: 0x0, symName: __ZNSt3__115basic_stringbufIcNS_11char_traitsIcEENS_9allocatorIcEEEC2B7v160006ERKNS_12basic_stringIcS2_S4_EEj, symObjAddr: 0xC230, symBinAddr: 0x100010110, symSize: 0xA0 }
  - { offsetInCU: 0x2ED52, offset: 0x2ED52, size: 0x8, addend: 0x0, symName: __ZNKSt3__112basic_stringIcNS_11char_traitsIcEENS_9allocatorIcEEE13get_allocatorB7v160006Ev, symObjAddr: 0xC2D0, symBinAddr: 0x1000101B0, symSize: 0x20 }
  - { offsetInCU: 0x2ED78, offset: 0x2ED78, size: 0x8, addend: 0x0, symName: __ZNSt3__112basic_stringIcNS_11char_traitsIcEENS_9allocatorIcEEEC1B7v160006ERKS4_, symObjAddr: 0xC2F0, symBinAddr: 0x1000101D0, symSize: 0x30 }
  - { offsetInCU: 0x2EDB1, offset: 0x2EDB1, size: 0x8, addend: 0x0, symName: __ZNKSt3__112basic_stringIcNS_11char_traitsIcEENS_9allocatorIcEEE7__allocB7v160006Ev, symObjAddr: 0xC320, symBinAddr: 0x100010200, symSize: 0x20 }
  - { offsetInCU: 0x2EDD7, offset: 0x2EDD7, size: 0x8, addend: 0x0, symName: __ZNKSt3__117__compressed_pairINS_12basic_stringIcNS_11char_traitsIcEENS_9allocatorIcEEE5__repES5_E6secondB7v160006Ev, symObjAddr: 0xC340, symBinAddr: 0x100010220, symSize: 0x20 }
  - { offsetInCU: 0x2EDFD, offset: 0x2EDFD, size: 0x8, addend: 0x0, symName: __ZNKSt3__122__compressed_pair_elemINS_9allocatorIcEELi1ELb1EE5__getB7v160006Ev, symObjAddr: 0xC360, symBinAddr: 0x100010240, symSize: 0x10 }
  - { offsetInCU: 0x2EE23, offset: 0x2EE23, size: 0x8, addend: 0x0, symName: __ZNSt3__112basic_stringIcNS_11char_traitsIcEENS_9allocatorIcEEEC2B7v160006ERKS4_, symObjAddr: 0xC370, symBinAddr: 0x100010250, symSize: 0x50 }
  - { offsetInCU: 0x2EE5C, offset: 0x2EE5C, size: 0x8, addend: 0x0, symName: __ZNSt3__117__compressed_pairINS_12basic_stringIcNS_11char_traitsIcEENS_9allocatorIcEEE5__repES5_EC1B7v160006INS_18__default_init_tagERKS5_EEOT_OT0_, symObjAddr: 0xC3C0, symBinAddr: 0x1000102A0, symSize: 0x30 }
  - { offsetInCU: 0x2EEB4, offset: 0x2EEB4, size: 0x8, addend: 0x0, symName: __ZNSt3__117__compressed_pairINS_12basic_stringIcNS_11char_traitsIcEENS_9allocatorIcEEE5__repES5_EC2B7v160006INS_18__default_init_tagERKS5_EEOT_OT0_, symObjAddr: 0xC3F0, symBinAddr: 0x1000102D0, symSize: 0x40 }
  - { offsetInCU: 0x2EF0C, offset: 0x2EF0C, size: 0x8, addend: 0x0, symName: __ZNSt3__122__compressed_pair_elemINS_9allocatorIcEELi1ELb1EEC2B7v160006IRKS2_vEEOT_, symObjAddr: 0xC430, symBinAddr: 0x100010310, symSize: 0x10 }
  - { offsetInCU: 0x2EF71, offset: 0x2EF71, size: 0x8, addend: 0x0, symName: __ZNKSt3__113basic_istreamIcNS_11char_traitsIcEEE6sentrycvbB7v160006Ev, symObjAddr: 0xC440, symBinAddr: 0x100010320, symSize: 0x20 }
  - { offsetInCU: 0x2EF97, offset: 0x2EF97, size: 0x8, addend: 0x0, symName: __ZNSt3__112basic_stringIcNS_11char_traitsIcEENS_9allocatorIcEEE5clearB7v160006Ev, symObjAddr: 0xC460, symBinAddr: 0x100010340, symSize: 0xA0 }
  - { offsetInCU: 0x2EFBF, offset: 0x2EFBF, size: 0x8, addend: 0x0, symName: __ZNKSt3__18ios_base5widthB7v160006Ev, symObjAddr: 0xC500, symBinAddr: 0x1000103E0, symSize: 0x20 }
  - { offsetInCU: 0x2EFE7, offset: 0x2EFE7, size: 0x8, addend: 0x0, symName: __ZNKSt3__112basic_stringIcNS_11char_traitsIcEENS_9allocatorIcEEE8max_sizeB7v160006Ev, symObjAddr: 0xC520, symBinAddr: 0x100010400, symSize: 0xA0 }
  - { offsetInCU: 0x2F039, offset: 0x2F039, size: 0x8, addend: 0x0, symName: __ZNSt3__115basic_streambufIcNS_11char_traitsIcEEE5sgetcB7v160006Ev, symObjAddr: 0xC5F0, symBinAddr: 0x1000104D0, symSize: 0x50 }
  - { offsetInCU: 0x2F05F, offset: 0x2F05F, size: 0x8, addend: 0x0, symName: __ZNSt3__111char_traitsIcE11eq_int_typeEii, symObjAddr: 0xC640, symBinAddr: 0x100010520, symSize: 0x20 }
  - { offsetInCU: 0x2F090, offset: 0x2F090, size: 0x8, addend: 0x0, symName: __ZNSt3__111char_traitsIcE12to_char_typeEi, symObjAddr: 0xC660, symBinAddr: 0x100010540, symSize: 0x10 }
  - { offsetInCU: 0x2F0E6, offset: 0x2F0E6, size: 0x8, addend: 0x0, symName: __ZNKSt3__15ctypeIcE2isB7v160006Ejc, symObjAddr: 0xC670, symBinAddr: 0x100010550, symSize: 0x70 }
  - { offsetInCU: 0x2F12A, offset: 0x2F12A, size: 0x8, addend: 0x0, symName: __ZNSt3__115basic_streambufIcNS_11char_traitsIcEEE6sbumpcB7v160006Ev, symObjAddr: 0xC6E0, symBinAddr: 0x1000105C0, symSize: 0x60 }
  - { offsetInCU: 0x2F150, offset: 0x2F150, size: 0x8, addend: 0x0, symName: __ZNSt3__18ios_base5widthB7v160006El, symObjAddr: 0xC740, symBinAddr: 0x100010620, symSize: 0x30 }
  - { offsetInCU: 0x2F196, offset: 0x2F196, size: 0x8, addend: 0x0, symName: __ZNSt3__18ios_base18__setstate_nothrowB7v160006Ej, symObjAddr: 0xC770, symBinAddr: 0x100010650, symSize: 0x50 }
  - { offsetInCU: 0x2F1CB, offset: 0x2F1CB, size: 0x8, addend: 0x0, symName: __ZNKSt3__19basic_iosIcNS_11char_traitsIcEEE10exceptionsB7v160006Ev, symObjAddr: 0xC7C0, symBinAddr: 0x1000106A0, symSize: 0x20 }
  - { offsetInCU: 0x2F1F1, offset: 0x2F1F1, size: 0x8, addend: 0x0, symName: __ZNSt3__111char_traitsIcE6assignERcRKc, symObjAddr: 0xC7F0, symBinAddr: 0x1000106D0, symSize: 0x20 }
  - { offsetInCU: 0x2F222, offset: 0x2F222, size: 0x8, addend: 0x0, symName: __ZNSt3__112basic_stringIcNS_11char_traitsIcEENS_9allocatorIcEEE18__get_long_pointerB7v160006Ev, symObjAddr: 0xC810, symBinAddr: 0x1000106F0, symSize: 0x20 }
  - { offsetInCU: 0x2F248, offset: 0x2F248, size: 0x8, addend: 0x0, symName: __ZNSt3__112basic_stringIcNS_11char_traitsIcEENS_9allocatorIcEEE15__set_long_sizeB7v160006Em, symObjAddr: 0xC830, symBinAddr: 0x100010710, symSize: 0x30 }
  - { offsetInCU: 0x2F27D, offset: 0x2F27D, size: 0x8, addend: 0x0, symName: __ZNSt3__112basic_stringIcNS_11char_traitsIcEENS_9allocatorIcEEE19__get_short_pointerB7v160006Ev, symObjAddr: 0xC860, symBinAddr: 0x100010740, symSize: 0x30 }
  - { offsetInCU: 0x2F2A3, offset: 0x2F2A3, size: 0x8, addend: 0x0, symName: __ZNSt3__112basic_stringIcNS_11char_traitsIcEENS_9allocatorIcEEE16__set_short_sizeB7v160006Em, symObjAddr: 0xC890, symBinAddr: 0x100010770, symSize: 0x50 }
  - { offsetInCU: 0x2F2D8, offset: 0x2F2D8, size: 0x8, addend: 0x0, symName: __ZNSt3__114pointer_traitsIPcE10pointer_toB7v160006ERc, symObjAddr: 0xC8E0, symBinAddr: 0x1000107C0, symSize: 0x10 }
  - { offsetInCU: 0x2F306, offset: 0x2F306, size: 0x8, addend: 0x0, symName: __ZNSt3__116allocator_traitsINS_9allocatorIcEEE8max_sizeB7v160006IS2_vEEmRKS2_, symObjAddr: 0xC8F0, symBinAddr: 0x1000107D0, symSize: 0x20 }
  - { offsetInCU: 0x2F334, offset: 0x2F334, size: 0x8, addend: 0x0, symName: __ZNSt3__114numeric_limitsImE3maxB7v160006Ev, symObjAddr: 0xC910, symBinAddr: 0x1000107F0, symSize: 0x10 }
  - { offsetInCU: 0x2F348, offset: 0x2F348, size: 0x8, addend: 0x0, symName: __ZNKSt3__19allocatorIcE8max_sizeB7v160006Ev, symObjAddr: 0xC920, symBinAddr: 0x100010800, symSize: 0x20 }
  - { offsetInCU: 0x2F36E, offset: 0x2F36E, size: 0x8, addend: 0x0, symName: __ZNSt3__123__libcpp_numeric_limitsImLb1EE3maxB7v160006Ev, symObjAddr: 0xC940, symBinAddr: 0x100010820, symSize: 0x10 }
  - { offsetInCU: 0x2F382, offset: 0x2F382, size: 0x8, addend: 0x0, symName: __ZNSt3__111char_traitsIcE11to_int_typeEc, symObjAddr: 0xC950, symBinAddr: 0x100010830, symSize: 0x10 }
  - { offsetInCU: 0x2F3A5, offset: 0x2F3A5, size: 0x8, addend: 0x0, symName: __ZNKSt3__18ios_base10exceptionsB7v160006Ev, symObjAddr: 0xC960, symBinAddr: 0x100010840, symSize: 0x20 }
  - { offsetInCU: 0x2F3CD, offset: 0x2F3CD, size: 0x8, addend: 0x0, symName: __ZNSt3__16vectorI5TokenNS_9allocatorIS1_EEE9__end_capB7v160006Ev, symObjAddr: 0xC980, symBinAddr: 0x100010860, symSize: 0x20 }
  - { offsetInCU: 0x2F3F9, offset: 0x2F3F9, size: 0x8, addend: 0x0, symName: __ZNSt3__16vectorI5TokenNS_9allocatorIS1_EEE22__construct_one_at_endB7v160006IJS1_EEEvDpOT_, symObjAddr: 0xC9A0, symBinAddr: 0x100010880, symSize: 0x90 }
  - { offsetInCU: 0x2F448, offset: 0x2F448, size: 0x8, addend: 0x0, symName: __ZNSt3__16vectorI5TokenNS_9allocatorIS1_EEE21__push_back_slow_pathIS1_EEvOT_, symObjAddr: 0xCA30, symBinAddr: 0x100010910, symSize: 0xD0 }
  - { offsetInCU: 0x2F4A6, offset: 0x2F4A6, size: 0x8, addend: 0x0, symName: __ZNSt3__117__compressed_pairIP5TokenNS_9allocatorIS1_EEE5firstB7v160006Ev, symObjAddr: 0xCB00, symBinAddr: 0x1000109E0, symSize: 0x20 }
  - { offsetInCU: 0x2F4CC, offset: 0x2F4CC, size: 0x8, addend: 0x0, symName: __ZNSt3__122__compressed_pair_elemIP5TokenLi0ELb0EE5__getB7v160006Ev, symObjAddr: 0xCB20, symBinAddr: 0x100010A00, symSize: 0x10 }
  - { offsetInCU: 0x2F50E, offset: 0x2F50E, size: 0x8, addend: 0x0, symName: __ZNSt3__16vectorI5TokenNS_9allocatorIS1_EEE21_ConstructTransactionC1B7v160006ERS4_m, symObjAddr: 0xCB30, symBinAddr: 0x100010A10, symSize: 0x30 }
  - { offsetInCU: 0x2F556, offset: 0x2F556, size: 0x8, addend: 0x0, symName: __ZNSt3__116allocator_traitsINS_9allocatorI5TokenEEE9constructB7v160006IS2_JS2_EvEEvRS3_PT_DpOT0_, symObjAddr: 0xCB60, symBinAddr: 0x100010A40, symSize: 0x30 }
  - { offsetInCU: 0x2F5AD, offset: 0x2F5AD, size: 0x8, addend: 0x0, symName: __ZNSt3__16vectorI5TokenNS_9allocatorIS1_EEE7__allocB7v160006Ev, symObjAddr: 0xCB90, symBinAddr: 0x100010A70, symSize: 0x20 }
  - { offsetInCU: 0x2F5D3, offset: 0x2F5D3, size: 0x8, addend: 0x0, symName: __ZNSt3__16vectorI5TokenNS_9allocatorIS1_EEE21_ConstructTransactionD1B7v160006Ev, symObjAddr: 0xCBC0, symBinAddr: 0x100010AA0, symSize: 0x20 }
  - { offsetInCU: 0x2F5FD, offset: 0x2F5FD, size: 0x8, addend: 0x0, symName: __ZNSt3__16vectorI5TokenNS_9allocatorIS1_EEE21_ConstructTransactionC2B7v160006ERS4_m, symObjAddr: 0xCBE0, symBinAddr: 0x100010AC0, symSize: 0x40 }
  - { offsetInCU: 0x2F645, offset: 0x2F645, size: 0x8, addend: 0x0, symName: __ZNSt3__19allocatorI5TokenE9constructB7v160006IS1_JS1_EEEvPT_DpOT0_, symObjAddr: 0xCC20, symBinAddr: 0x100010B00, symSize: 0x30 }
  - { offsetInCU: 0x2F69B, offset: 0x2F69B, size: 0x8, addend: 0x0, symName: __ZN5TokenC1EOS_, symObjAddr: 0xCC50, symBinAddr: 0x100010B30, symSize: 0x30 }
  - { offsetInCU: 0x2F6D0, offset: 0x2F6D0, size: 0x8, addend: 0x0, symName: __ZN5TokenC2EOS_, symObjAddr: 0xCC80, symBinAddr: 0x100010B60, symSize: 0x40 }
  - { offsetInCU: 0x2F705, offset: 0x2F705, size: 0x8, addend: 0x0, symName: __ZNSt3__117__compressed_pairIP5TokenNS_9allocatorIS1_EEE6secondB7v160006Ev, symObjAddr: 0xCCC0, symBinAddr: 0x100010BA0, symSize: 0x20 }
  - { offsetInCU: 0x2F72B, offset: 0x2F72B, size: 0x8, addend: 0x0, symName: __ZNSt3__122__compressed_pair_elemINS_9allocatorI5TokenEELi1ELb1EE5__getB7v160006Ev, symObjAddr: 0xCCE0, symBinAddr: 0x100010BC0, symSize: 0x10 }
  - { offsetInCU: 0x2F751, offset: 0x2F751, size: 0x8, addend: 0x0, symName: __ZNSt3__16vectorI5TokenNS_9allocatorIS1_EEE21_ConstructTransactionD2B7v160006Ev, symObjAddr: 0xCCF0, symBinAddr: 0x100010BD0, symSize: 0x20 }
  - { offsetInCU: 0x2F77B, offset: 0x2F77B, size: 0x8, addend: 0x0, symName: __ZNKSt3__16vectorI5TokenNS_9allocatorIS1_EEE11__recommendB7v160006Em, symObjAddr: 0xCD10, symBinAddr: 0x100010BF0, symSize: 0xA0 }
  - { offsetInCU: 0x2F7D0, offset: 0x2F7D0, size: 0x8, addend: 0x0, symName: __ZNSt3__114__split_bufferI5TokenRNS_9allocatorIS1_EEEC1EmmS4_, symObjAddr: 0xCDB0, symBinAddr: 0x100010C90, symSize: 0x40 }
  - { offsetInCU: 0x2F826, offset: 0x2F826, size: 0x8, addend: 0x0, symName: __ZNSt3__114__split_bufferI5TokenRNS_9allocatorIS1_EEED1Ev, symObjAddr: 0xCF20, symBinAddr: 0x100010E00, symSize: 0x20 }
  - { offsetInCU: 0x2F852, offset: 0x2F852, size: 0x8, addend: 0x0, symName: __ZNKSt3__16vectorI5TokenNS_9allocatorIS1_EEE8max_sizeEv, symObjAddr: 0xCF40, symBinAddr: 0x100010E20, symSize: 0x60 }
  - { offsetInCU: 0x2F87A, offset: 0x2F87A, size: 0x8, addend: 0x0, symName: __ZNKSt3__16vectorI5TokenNS_9allocatorIS1_EEE20__throw_length_errorB7v160006Ev, symObjAddr: 0xCFA0, symBinAddr: 0x100010E80, symSize: 0x20 }
  - { offsetInCU: 0x2F8A0, offset: 0x2F8A0, size: 0x8, addend: 0x0, symName: __ZNKSt3__16vectorI5TokenNS_9allocatorIS1_EEE8capacityB7v160006Ev, symObjAddr: 0xCFC0, symBinAddr: 0x100010EA0, symSize: 0x30 }
  - { offsetInCU: 0x2F8D1, offset: 0x2F8D1, size: 0x8, addend: 0x0, symName: __ZNSt3__116allocator_traitsINS_9allocatorI5TokenEEE8max_sizeB7v160006IS3_vEEmRKS3_, symObjAddr: 0xCFF0, symBinAddr: 0x100010ED0, symSize: 0x20 }
  - { offsetInCU: 0x2F8FF, offset: 0x2F8FF, size: 0x8, addend: 0x0, symName: __ZNKSt3__16vectorI5TokenNS_9allocatorIS1_EEE7__allocB7v160006Ev, symObjAddr: 0xD010, symBinAddr: 0x100010EF0, symSize: 0x20 }
  - { offsetInCU: 0x2F925, offset: 0x2F925, size: 0x8, addend: 0x0, symName: __ZNKSt3__19allocatorI5TokenE8max_sizeB7v160006Ev, symObjAddr: 0xD030, symBinAddr: 0x100010F10, symSize: 0x20 }
  - { offsetInCU: 0x2F94B, offset: 0x2F94B, size: 0x8, addend: 0x0, symName: __ZNKSt3__117__compressed_pairIP5TokenNS_9allocatorIS1_EEE6secondB7v160006Ev, symObjAddr: 0xD050, symBinAddr: 0x100010F30, symSize: 0x20 }
  - { offsetInCU: 0x2F971, offset: 0x2F971, size: 0x8, addend: 0x0, symName: __ZNKSt3__122__compressed_pair_elemINS_9allocatorI5TokenEELi1ELb1EE5__getB7v160006Ev, symObjAddr: 0xD070, symBinAddr: 0x100010F50, symSize: 0x10 }
  - { offsetInCU: 0x2F997, offset: 0x2F997, size: 0x8, addend: 0x0, symName: __ZNKSt3__16vectorI5TokenNS_9allocatorIS1_EEE9__end_capB7v160006Ev, symObjAddr: 0xD080, symBinAddr: 0x100010F60, symSize: 0x20 }
  - { offsetInCU: 0x2F9BD, offset: 0x2F9BD, size: 0x8, addend: 0x0, symName: __ZNKSt3__117__compressed_pairIP5TokenNS_9allocatorIS1_EEE5firstB7v160006Ev, symObjAddr: 0xD0A0, symBinAddr: 0x100010F80, symSize: 0x20 }
  - { offsetInCU: 0x2F9E3, offset: 0x2F9E3, size: 0x8, addend: 0x0, symName: __ZNKSt3__122__compressed_pair_elemIP5TokenLi0ELb0EE5__getB7v160006Ev, symObjAddr: 0xD0C0, symBinAddr: 0x100010FA0, symSize: 0x10 }
  - { offsetInCU: 0x2FA09, offset: 0x2FA09, size: 0x8, addend: 0x0, symName: __ZNSt3__114__split_bufferI5TokenRNS_9allocatorIS1_EEEC2EmmS4_, symObjAddr: 0xD0D0, symBinAddr: 0x100010FB0, symSize: 0xD0 }
  - { offsetInCU: 0x2FA7C, offset: 0x2FA7C, size: 0x8, addend: 0x0, symName: __ZNSt3__117__compressed_pairIP5TokenRNS_9allocatorIS1_EEEC1B7v160006IDnS5_EEOT_OT0_, symObjAddr: 0xD1A0, symBinAddr: 0x100011080, symSize: 0x30 }
  - { offsetInCU: 0x2FAD4, offset: 0x2FAD4, size: 0x8, addend: 0x0, symName: __ZNSt3__114__split_bufferI5TokenRNS_9allocatorIS1_EEE7__allocB7v160006Ev, symObjAddr: 0xD210, symBinAddr: 0x1000110F0, symSize: 0x20 }
  - { offsetInCU: 0x2FAFA, offset: 0x2FAFA, size: 0x8, addend: 0x0, symName: __ZNSt3__114__split_bufferI5TokenRNS_9allocatorIS1_EEE9__end_capB7v160006Ev, symObjAddr: 0xD230, symBinAddr: 0x100011110, symSize: 0x20 }
  - { offsetInCU: 0x2FB20, offset: 0x2FB20, size: 0x8, addend: 0x0, symName: __ZNSt3__117__compressed_pairIP5TokenRNS_9allocatorIS1_EEEC2B7v160006IDnS5_EEOT_OT0_, symObjAddr: 0xD250, symBinAddr: 0x100011130, symSize: 0x40 }
  - { offsetInCU: 0x2FB78, offset: 0x2FB78, size: 0x8, addend: 0x0, symName: __ZNSt3__122__compressed_pair_elemIP5TokenLi0ELb0EEC2B7v160006IDnvEEOT_, symObjAddr: 0xD290, symBinAddr: 0x100011170, symSize: 0x20 }
  - { offsetInCU: 0x2FBBA, offset: 0x2FBBA, size: 0x8, addend: 0x0, symName: __ZNSt3__122__compressed_pair_elemIRNS_9allocatorI5TokenEELi1ELb0EEC2B7v160006IS4_vEEOT_, symObjAddr: 0xD2B0, symBinAddr: 0x100011190, symSize: 0x20 }
  - { offsetInCU: 0x2FBFC, offset: 0x2FBFC, size: 0x8, addend: 0x0, symName: __ZNSt3__19allocatorI5TokenE8allocateB7v160006Em, symObjAddr: 0xD2D0, symBinAddr: 0x1000111B0, symSize: 0x50 }
  - { offsetInCU: 0x2FC30, offset: 0x2FC30, size: 0x8, addend: 0x0, symName: __ZNSt3__117__compressed_pairIP5TokenRNS_9allocatorIS1_EEE6secondB7v160006Ev, symObjAddr: 0xD320, symBinAddr: 0x100011200, symSize: 0x20 }
  - { offsetInCU: 0x2FC56, offset: 0x2FC56, size: 0x8, addend: 0x0, symName: __ZNSt3__122__compressed_pair_elemIRNS_9allocatorI5TokenEELi1ELb0EE5__getB7v160006Ev, symObjAddr: 0xD340, symBinAddr: 0x100011220, symSize: 0x20 }
  - { offsetInCU: 0x2FC7C, offset: 0x2FC7C, size: 0x8, addend: 0x0, symName: __ZNSt3__117__compressed_pairIP5TokenRNS_9allocatorIS1_EEE5firstB7v160006Ev, symObjAddr: 0xD360, symBinAddr: 0x100011240, symSize: 0x20 }
  - { offsetInCU: 0x2FCA2, offset: 0x2FCA2, size: 0x8, addend: 0x0, symName: __ZNKSt3__16vectorI5TokenNS_9allocatorIS1_EEE17__annotate_deleteB7v160006Ev, symObjAddr: 0xD380, symBinAddr: 0x100011260, symSize: 0xB0 }
  - { offsetInCU: 0x2FCC8, offset: 0x2FCC8, size: 0x8, addend: 0x0, symName: __ZNSt3__116reverse_iteratorIP5TokenEC1B7v160006ES2_, symObjAddr: 0xD5B0, symBinAddr: 0x100011490, symSize: 0x30 }
  - { offsetInCU: 0x2FD00, offset: 0x2FD00, size: 0x8, addend: 0x0, symName: __ZNKSt3__116reverse_iteratorIP5TokenE4baseB7v160006Ev, symObjAddr: 0xD5E0, symBinAddr: 0x1000114C0, symSize: 0x20 }
  - { offsetInCU: 0x2FD26, offset: 0x2FD26, size: 0x8, addend: 0x0, symName: __ZNKSt3__16vectorI5TokenNS_9allocatorIS1_EEE14__annotate_newB7v160006Em, symObjAddr: 0xD640, symBinAddr: 0x100011520, symSize: 0xB0 }
  - { offsetInCU: 0x2FD5B, offset: 0x2FD5B, size: 0x8, addend: 0x0, symName: __ZNKSt3__16vectorI5TokenNS_9allocatorIS1_EEE31__annotate_contiguous_containerB7v160006EPKvS6_S6_S6_, symObjAddr: 0xD700, symBinAddr: 0x1000115E0, symSize: 0x20 }
  - { offsetInCU: 0x2FDB1, offset: 0x2FDB1, size: 0x8, addend: 0x0, symName: __ZNKSt3__16vectorI5TokenNS_9allocatorIS1_EEE4dataB7v160006Ev, symObjAddr: 0xD720, symBinAddr: 0x100011600, symSize: 0x20 }
  - { offsetInCU: 0x2FDD7, offset: 0x2FDD7, size: 0x8, addend: 0x0, symName: __ZNSt3__129_AllocatorDestroyRangeReverseINS_9allocatorI5TokenEENS_16reverse_iteratorIPS2_EEEC1B7v160006ERS3_RS6_S9_, symObjAddr: 0xD7A0, symBinAddr: 0x100011680, symSize: 0x40 }
  - { offsetInCU: 0x2FE2E, offset: 0x2FE2E, size: 0x8, addend: 0x0, symName: __ZNKSt3__116reverse_iteratorIP5TokenEdeB7v160006Ev, symObjAddr: 0xD840, symBinAddr: 0x100011720, symSize: 0x30 }
  - { offsetInCU: 0x2FE62, offset: 0x2FE62, size: 0x8, addend: 0x0, symName: __ZNSt3__116reverse_iteratorIP5TokenEppB7v160006Ev, symObjAddr: 0xD870, symBinAddr: 0x100011750, symSize: 0x20 }
  - { offsetInCU: 0x2FE88, offset: 0x2FE88, size: 0x8, addend: 0x0, symName: __ZNSt3__128__exception_guard_exceptionsINS_29_AllocatorDestroyRangeReverseINS_9allocatorI5TokenEENS_16reverse_iteratorIPS3_EEEEE10__completeB7v160006Ev, symObjAddr: 0xD890, symBinAddr: 0x100011770, symSize: 0x20 }
  - { offsetInCU: 0x2FEAE, offset: 0x2FEAE, size: 0x8, addend: 0x0, symName: __ZNSt3__128__exception_guard_exceptionsINS_29_AllocatorDestroyRangeReverseINS_9allocatorI5TokenEENS_16reverse_iteratorIPS3_EEEEED1B7v160006Ev, symObjAddr: 0xD8B0, symBinAddr: 0x100011790, symSize: 0x20 }
  - { offsetInCU: 0x2FED8, offset: 0x2FED8, size: 0x8, addend: 0x0, symName: __ZNSt3__128__exception_guard_exceptionsINS_29_AllocatorDestroyRangeReverseINS_9allocatorI5TokenEENS_16reverse_iteratorIPS3_EEEEEC1B7v160006ES8_, symObjAddr: 0xD8D0, symBinAddr: 0x1000117B0, symSize: 0x40 }
  - { offsetInCU: 0x2FF10, offset: 0x2FF10, size: 0x8, addend: 0x0, symName: __ZNSt3__128__exception_guard_exceptionsINS_29_AllocatorDestroyRangeReverseINS_9allocatorI5TokenEENS_16reverse_iteratorIPS3_EEEEEC2B7v160006ES8_, symObjAddr: 0xD910, symBinAddr: 0x1000117F0, symSize: 0x30 }
  - { offsetInCU: 0x2FF48, offset: 0x2FF48, size: 0x8, addend: 0x0, symName: __ZNSt3__129_AllocatorDestroyRangeReverseINS_9allocatorI5TokenEENS_16reverse_iteratorIPS2_EEEC2B7v160006ERS3_RS6_S9_, symObjAddr: 0xD940, symBinAddr: 0x100011820, symSize: 0x40 }
  - { offsetInCU: 0x2FFA5, offset: 0x2FFA5, size: 0x8, addend: 0x0, symName: __ZNSt3__119__to_address_helperINS_16reverse_iteratorIP5TokenEEvE6__callB7v160006ERKS4_, symObjAddr: 0xD980, symBinAddr: 0x100011860, symSize: 0x40 }
  - { offsetInCU: 0x2FFC8, offset: 0x2FFC8, size: 0x8, addend: 0x0, symName: __ZNKSt3__116reverse_iteratorIP5TokenEptB7v160006Ev, symObjAddr: 0xD9C0, symBinAddr: 0x1000118A0, symSize: 0x20 }
  - { offsetInCU: 0x2FFEE, offset: 0x2FFEE, size: 0x8, addend: 0x0, symName: __ZNSt3__128__exception_guard_exceptionsINS_29_AllocatorDestroyRangeReverseINS_9allocatorI5TokenEENS_16reverse_iteratorIPS3_EEEEED2B7v160006Ev, symObjAddr: 0xD9E0, symBinAddr: 0x1000118C0, symSize: 0x40 }
  - { offsetInCU: 0x30018, offset: 0x30018, size: 0x8, addend: 0x0, symName: __ZNKSt3__129_AllocatorDestroyRangeReverseINS_9allocatorI5TokenEENS_16reverse_iteratorIPS2_EEEclB7v160006Ev, symObjAddr: 0xDA20, symBinAddr: 0x100011900, symSize: 0xF0 }
  - { offsetInCU: 0x3003F, offset: 0x3003F, size: 0x8, addend: 0x0, symName: __ZNSt3__116reverse_iteratorINS0_IP5TokenEEEC1B7v160006ES3_, symObjAddr: 0xDB80, symBinAddr: 0x100011A60, symSize: 0x30 }
  - { offsetInCU: 0x30077, offset: 0x30077, size: 0x8, addend: 0x0, symName: __ZNSt3__116allocator_traitsINS_9allocatorI5TokenEEE7destroyB7v160006IS2_vEEvRS3_PT_, symObjAddr: 0xDC00, symBinAddr: 0x100011AE0, symSize: 0x30 }
  - { offsetInCU: 0x300B4, offset: 0x300B4, size: 0x8, addend: 0x0, symName: __ZNSt3__116reverse_iteratorINS0_IP5TokenEEEppB7v160006Ev, symObjAddr: 0xDC50, symBinAddr: 0x100011B30, symSize: 0x30 }
  - { offsetInCU: 0x300DA, offset: 0x300DA, size: 0x8, addend: 0x0, symName: __ZNKSt3__116reverse_iteratorINS0_IP5TokenEEE4baseB7v160006Ev, symObjAddr: 0xDC80, symBinAddr: 0x100011B60, symSize: 0x20 }
  - { offsetInCU: 0x30100, offset: 0x30100, size: 0x8, addend: 0x0, symName: __ZNSt3__19allocatorI5TokenE7destroyB7v160006EPS1_, symObjAddr: 0xDCA0, symBinAddr: 0x100011B80, symSize: 0x20 }
  - { offsetInCU: 0x3013A, offset: 0x3013A, size: 0x8, addend: 0x0, symName: __ZNSt3__119__to_address_helperINS_16reverse_iteratorINS1_IP5TokenEEEEvE6__callB7v160006ERKS5_, symObjAddr: 0xDCC0, symBinAddr: 0x100011BA0, symSize: 0x40 }
  - { offsetInCU: 0x3015D, offset: 0x3015D, size: 0x8, addend: 0x0, symName: __ZNKSt3__116reverse_iteratorINS0_IP5TokenEEEptB7v160006Ev, symObjAddr: 0xDD00, symBinAddr: 0x100011BE0, symSize: 0x20 }
  - { offsetInCU: 0x30183, offset: 0x30183, size: 0x8, addend: 0x0, symName: __ZNKSt3__116reverse_iteratorINS0_IP5TokenEEEdeB7v160006Ev, symObjAddr: 0xDD20, symBinAddr: 0x100011C00, symSize: 0x40 }
  - { offsetInCU: 0x301B7, offset: 0x301B7, size: 0x8, addend: 0x0, symName: __ZNSt3__116reverse_iteratorIP5TokenEmmB7v160006Ev, symObjAddr: 0xDD60, symBinAddr: 0x100011C40, symSize: 0x20 }
  - { offsetInCU: 0x301DD, offset: 0x301DD, size: 0x8, addend: 0x0, symName: __ZNSt3__116reverse_iteratorINS0_IP5TokenEEEC2B7v160006ES3_, symObjAddr: 0xDD80, symBinAddr: 0x100011C60, symSize: 0x40 }
  - { offsetInCU: 0x30215, offset: 0x30215, size: 0x8, addend: 0x0, symName: __ZNSt3__116reverse_iteratorIP5TokenEC2B7v160006ES2_, symObjAddr: 0xDDC0, symBinAddr: 0x100011CA0, symSize: 0x30 }
  - { offsetInCU: 0x3024D, offset: 0x3024D, size: 0x8, addend: 0x0, symName: __ZNSt3__114__split_bufferI5TokenRNS_9allocatorIS1_EEED2Ev, symObjAddr: 0xDDF0, symBinAddr: 0x100011CD0, symSize: 0x70 }
  - { offsetInCU: 0x30279, offset: 0x30279, size: 0x8, addend: 0x0, symName: __ZNSt3__114__split_bufferI5TokenRNS_9allocatorIS1_EEE5clearB7v160006Ev, symObjAddr: 0xDE60, symBinAddr: 0x100011D40, symSize: 0x20 }
  - { offsetInCU: 0x3029F, offset: 0x3029F, size: 0x8, addend: 0x0, symName: __ZNSt3__116allocator_traitsINS_9allocatorI5TokenEEE10deallocateB7v160006ERS3_PS2_m, symObjAddr: 0xDE80, symBinAddr: 0x100011D60, symSize: 0x30 }
  - { offsetInCU: 0x302E1, offset: 0x302E1, size: 0x8, addend: 0x0, symName: __ZNKSt3__114__split_bufferI5TokenRNS_9allocatorIS1_EEE8capacityB7v160006Ev, symObjAddr: 0xDEB0, symBinAddr: 0x100011D90, symSize: 0x30 }
  - { offsetInCU: 0x30307, offset: 0x30307, size: 0x8, addend: 0x0, symName: __ZNSt3__114__split_bufferI5TokenRNS_9allocatorIS1_EEE17__destruct_at_endB7v160006EPS1_, symObjAddr: 0xDEE0, symBinAddr: 0x100011DC0, symSize: 0x30 }
  - { offsetInCU: 0x3033B, offset: 0x3033B, size: 0x8, addend: 0x0, symName: __ZNSt3__114__split_bufferI5TokenRNS_9allocatorIS1_EEE17__destruct_at_endB7v160006EPS1_NS_17integral_constantIbLb0EEE, symObjAddr: 0xDF10, symBinAddr: 0x100011DF0, symSize: 0x80 }
  - { offsetInCU: 0x3037C, offset: 0x3037C, size: 0x8, addend: 0x0, symName: __ZNSt3__19allocatorI5TokenE10deallocateB7v160006EPS1_m, symObjAddr: 0xDF90, symBinAddr: 0x100011E70, symSize: 0x40 }
  - { offsetInCU: 0x303BE, offset: 0x303BE, size: 0x8, addend: 0x0, symName: __ZNKSt3__114__split_bufferI5TokenRNS_9allocatorIS1_EEE9__end_capB7v160006Ev, symObjAddr: 0xDFD0, symBinAddr: 0x100011EB0, symSize: 0x20 }
  - { offsetInCU: 0x303E4, offset: 0x303E4, size: 0x8, addend: 0x0, symName: __ZNKSt3__117__compressed_pairIP5TokenRNS_9allocatorIS1_EEE5firstB7v160006Ev, symObjAddr: 0xDFF0, symBinAddr: 0x100011ED0, symSize: 0x20 }
  - { offsetInCU: 0x3040A, offset: 0x3040A, size: 0x8, addend: 0x0, symName: __ZNSt3__111char_traitsIcE6lengthEPKc, symObjAddr: 0xE0A0, symBinAddr: 0x100011F80, symSize: 0x30 }
  - { offsetInCU: 0x3042D, offset: 0x3042D, size: 0x8, addend: 0x0, symName: __ZNSt3__119basic_istringstreamIcNS_11char_traitsIcEENS_9allocatorIcEEED2Ev, symObjAddr: 0xE0F0, symBinAddr: 0x100011FD0, symSize: 0x60 }
  - { offsetInCU: 0x30467, offset: 0x30467, size: 0x8, addend: 0x0, symName: __ZTv0_n24_NSt3__119basic_istringstreamIcNS_11char_traitsIcEENS_9allocatorIcEEED1Ev, symObjAddr: 0xE150, symBinAddr: 0x100012030, symSize: 0x20 }
  - { offsetInCU: 0x30484, offset: 0x30484, size: 0x8, addend: 0x0, symName: __ZNSt3__115basic_stringbufIcNS_11char_traitsIcEENS_9allocatorIcEEED1Ev, symObjAddr: 0xE170, symBinAddr: 0x100012050, symSize: 0x20 }
  - { offsetInCU: 0x304B1, offset: 0x304B1, size: 0x8, addend: 0x0, symName: __ZNSt3__115basic_stringbufIcNS_11char_traitsIcEENS_9allocatorIcEEED2Ev, symObjAddr: 0xE190, symBinAddr: 0x100012070, symSize: 0x40 }
  - { offsetInCU: 0x304DE, offset: 0x304DE, size: 0x8, addend: 0x0, symName: __ZNSt3__114basic_ifstreamIcNS_11char_traitsIcEEED2Ev, symObjAddr: 0xE1D0, symBinAddr: 0x1000120B0, symSize: 0x60 }
  - { offsetInCU: 0x30518, offset: 0x30518, size: 0x8, addend: 0x0, symName: __ZTv0_n24_NSt3__114basic_ifstreamIcNS_11char_traitsIcEEED1Ev, symObjAddr: 0xE230, symBinAddr: 0x100012110, symSize: 0x20 }
  - { offsetInCU: 0x3052F, offset: 0x3052F, size: 0x8, addend: 0x0, symName: __ZN14SyntaxAnalyzer5lexerEb, symObjAddr: 0xE250, symBinAddr: 0x100012130, symSize: 0x280 }
  - { offsetInCU: 0x30582, offset: 0x30582, size: 0x8, addend: 0x0, symName: '__ZN14SyntaxAnalyzer7check$$E5Token', symObjAddr: 0xE4D0, symBinAddr: 0x1000123B0, symSize: 0x60 }
  - { offsetInCU: 0x305B8, offset: 0x305B8, size: 0x8, addend: 0x0, symName: __ZN5TokenC1ERKS_, symObjAddr: 0xE530, symBinAddr: 0x100012410, symSize: 0x30 }
  - { offsetInCU: 0x305ED, offset: 0x305ED, size: 0x8, addend: 0x0, symName: __ZN14SyntaxAnalyzer24Opt_Function_DefinitionsEv, symObjAddr: 0xE560, symBinAddr: 0x100012440, symSize: 0x80 }
  - { offsetInCU: 0x30613, offset: 0x30613, size: 0x8, addend: 0x0, symName: __ZN5TokenaSEOS_, symObjAddr: 0xE5E0, symBinAddr: 0x1000124C0, symSize: 0x40 }
  - { offsetInCU: 0x30644, offset: 0x30644, size: 0x8, addend: 0x0, symName: __ZN14SyntaxAnalyzer20Opt_Declaration_ListEv, symObjAddr: 0xE620, symBinAddr: 0x100012500, symSize: 0x150 }
  - { offsetInCU: 0x30679, offset: 0x30679, size: 0x8, addend: 0x0, symName: __ZN14SyntaxAnalyzer14Statement_ListEv, symObjAddr: 0xE770, symBinAddr: 0x100012650, symSize: 0x50 }
  - { offsetInCU: 0x3069F, offset: 0x3069F, size: 0x8, addend: 0x0, symName: __ZN14SyntaxAnalyzer17tokenTypeToStringE9TokenType, symObjAddr: 0xE7C0, symBinAddr: 0x1000126A0, symSize: 0x130 }
  - { offsetInCU: 0x306D4, offset: 0x306D4, size: 0x8, addend: 0x0, symName: __ZN5TokenC2ERKS_, symObjAddr: 0xE8F0, symBinAddr: 0x1000127D0, symSize: 0x40 }
  - { offsetInCU: 0x30709, offset: 0x30709, size: 0x8, addend: 0x0, symName: __ZN14SyntaxAnalyzer5EmptyEv, symObjAddr: 0xE930, symBinAddr: 0x100012810, symSize: 0x100 }
  - { offsetInCU: 0x3073E, offset: 0x3073E, size: 0x8, addend: 0x0, symName: __ZN14SyntaxAnalyzer20Function_DefinitionsEv, symObjAddr: 0xEA30, symBinAddr: 0x100012910, symSize: 0x50 }
  - { offsetInCU: 0x30764, offset: 0x30764, size: 0x8, addend: 0x0, symName: __ZN14SyntaxAnalyzer8FunctionEv, symObjAddr: 0xEA80, symBinAddr: 0x100012960, symSize: 0x380 }
  - { offsetInCU: 0x30799, offset: 0x30799, size: 0x8, addend: 0x0, symName: __ZN14SyntaxAnalyzer2FDEv, symObjAddr: 0xEE00, symBinAddr: 0x100012CE0, symSize: 0x80 }
  - { offsetInCU: 0x307BF, offset: 0x307BF, size: 0x8, addend: 0x0, symName: __ZN14SyntaxAnalyzer10IdentifierE5Value, symObjAddr: 0xEE80, symBinAddr: 0x100012D60, symSize: 0x170 }
  - { offsetInCU: 0x30804, offset: 0x30804, size: 0x8, addend: 0x0, symName: __ZN5ValueC1ENS_4TypeE, symObjAddr: 0xEFF0, symBinAddr: 0x100012ED0, symSize: 0x30 }
  - { offsetInCU: 0x3083C, offset: 0x3083C, size: 0x8, addend: 0x0, symName: __ZN14SyntaxAnalyzer18Opt_Parameter_ListEv, symObjAddr: 0xF020, symBinAddr: 0x100012F00, symSize: 0x130 }
  - { offsetInCU: 0x30871, offset: 0x30871, size: 0x8, addend: 0x0, symName: __ZN14SyntaxAnalyzer4BodyEv, symObjAddr: 0xF150, symBinAddr: 0x100013030, symSize: 0x200 }
  - { offsetInCU: 0x308BC, offset: 0x308BC, size: 0x8, addend: 0x0, symName: __ZN19Symbol_and_Assembly15generate_symbolENSt3__112basic_stringIcNS0_11char_traitsIcEENS0_9allocatorIcEEEE5Value, symObjAddr: 0xF350, symBinAddr: 0x100013230, symSize: 0x70 }
  - { offsetInCU: 0x30900, offset: 0x30900, size: 0x8, addend: 0x0, symName: __ZN5ValueC1ERKS_, symObjAddr: 0xF3C0, symBinAddr: 0x1000132A0, symSize: 0x30 }
  - { offsetInCU: 0x30935, offset: 0x30935, size: 0x8, addend: 0x0, symName: __ZNSt3__113unordered_mapINS_12basic_stringIcNS_11char_traitsIcEENS_9allocatorIcEEEEN19Symbol_and_Assembly10SymbolInfoENS_4hashIS6_EENS_8equal_toIS6_EENS4_INS_4pairIKS6_S8_EEEEEixERSE_, symObjAddr: 0xF3F0, symBinAddr: 0x1000132D0, symSize: 0x70 }
  - { offsetInCU: 0x3096C, offset: 0x3096C, size: 0x8, addend: 0x0, symName: __ZN5ValueaSERKS_, symObjAddr: 0xF460, symBinAddr: 0x100013340, symSize: 0x60 }
  - { offsetInCU: 0x3099D, offset: 0x3099D, size: 0x8, addend: 0x0, symName: __ZNSt3__112__hash_tableINS_17__hash_value_typeINS_12basic_stringIcNS_11char_traitsIcEENS_9allocatorIcEEEEN19Symbol_and_Assembly10SymbolInfoEEENS_22__unordered_map_hasherIS7_SA_NS_4hashIS7_EENS_8equal_toIS7_EELb1EEENS_21__unordered_map_equalIS7_SA_SF_SD_Lb1EEENS5_ISA_EEE25__emplace_unique_key_argsIS7_JRKNS_21piecewise_construct_tENS_5tupleIJRKS7_EEENSP_IJEEEEEENS_4pairINS_15__hash_iteratorIPNS_11__hash_nodeISA_PvEEEEbEERKT_DpOT0_, symObjAddr: 0xF4C0, symBinAddr: 0x1000133A0, symSize: 0x600 }
  - { offsetInCU: 0x30AA5, offset: 0x30AA5, size: 0x8, addend: 0x0, symName: __ZNKSt3__115__hash_iteratorIPNS_11__hash_nodeINS_17__hash_value_typeINS_12basic_stringIcNS_11char_traitsIcEENS_9allocatorIcEEEEN19Symbol_and_Assembly10SymbolInfoEEEPvEEEptB7v160006Ev, symObjAddr: 0xFAF0, symBinAddr: 0x1000139D0, symSize: 0x30 }
  - { offsetInCU: 0x30ACB, offset: 0x30ACB, size: 0x8, addend: 0x0, symName: __ZNSt3__112__hash_tableINS_17__hash_value_typeINS_12basic_stringIcNS_11char_traitsIcEENS_9allocatorIcEEEEN19Symbol_and_Assembly10SymbolInfoEEENS_22__unordered_map_hasherIS7_SA_NS_4hashIS7_EENS_8equal_toIS7_EELb1EEENS_21__unordered_map_equalIS7_SA_SF_SD_Lb1EEENS5_ISA_EEE13hash_functionB7v160006Ev, symObjAddr: 0xFB20, symBinAddr: 0x100013A00, symSize: 0x20 }
  - { offsetInCU: 0x30AF1, offset: 0x30AF1, size: 0x8, addend: 0x0, symName: __ZNKSt3__122__unordered_map_hasherINS_12basic_stringIcNS_11char_traitsIcEENS_9allocatorIcEEEENS_17__hash_value_typeIS6_N19Symbol_and_Assembly10SymbolInfoEEENS_4hashIS6_EENS_8equal_toIS6_EELb1EEclB7v160006ERKS6_, symObjAddr: 0xFB40, symBinAddr: 0x100013A20, symSize: 0x30 }
  - { offsetInCU: 0x30B26, offset: 0x30B26, size: 0x8, addend: 0x0, symName: __ZNKSt3__112__hash_tableINS_17__hash_value_typeINS_12basic_stringIcNS_11char_traitsIcEENS_9allocatorIcEEEEN19Symbol_and_Assembly10SymbolInfoEEENS_22__unordered_map_hasherIS7_SA_NS_4hashIS7_EENS_8equal_toIS7_EELb1EEENS_21__unordered_map_equalIS7_SA_SF_SD_Lb1EEENS5_ISA_EEE12bucket_countB7v160006Ev, symObjAddr: 0xFB70, symBinAddr: 0x100013A50, symSize: 0x30 }
  - { offsetInCU: 0x30B4C, offset: 0x30B4C, size: 0x8, addend: 0x0, symName: __ZNKSt3__110unique_ptrIA_PNS_16__hash_node_baseIPNS_11__hash_nodeINS_17__hash_value_typeINS_12basic_stringIcNS_11char_traitsIcEENS_9allocatorIcEEEEN19Symbol_and_Assembly10SymbolInfoEEEPvEEEENS_25__bucket_list_deallocatorINS7_ISH_EEEEEixB7v160006Em, symObjAddr: 0xFBA0, symBinAddr: 0x100013A80, symSize: 0x30 }
  - { offsetInCU: 0x30B81, offset: 0x30B81, size: 0x8, addend: 0x0, symName: __ZNKSt3__116__hash_node_baseIPNS_11__hash_nodeINS_17__hash_value_typeINS_12basic_stringIcNS_11char_traitsIcEENS_9allocatorIcEEEEN19Symbol_and_Assembly10SymbolInfoEEEPvEEE6__hashB7v160006Ev, symObjAddr: 0xFBD0, symBinAddr: 0x100013AB0, symSize: 0x20 }
  - { offsetInCU: 0x30BA7, offset: 0x30BA7, size: 0x8, addend: 0x0, symName: __ZNSt3__112__hash_tableINS_17__hash_value_typeINS_12basic_stringIcNS_11char_traitsIcEENS_9allocatorIcEEEEN19Symbol_and_Assembly10SymbolInfoEEENS_22__unordered_map_hasherIS7_SA_NS_4hashIS7_EENS_8equal_toIS7_EELb1EEENS_21__unordered_map_equalIS7_SA_SF_SD_Lb1EEENS5_ISA_EEE6key_eqB7v160006Ev, symObjAddr: 0xFBF0, symBinAddr: 0x100013AD0, symSize: 0x20 }
  - { offsetInCU: 0x30BCD, offset: 0x30BCD, size: 0x8, addend: 0x0, symName: __ZNKSt3__121__unordered_map_equalINS_12basic_stringIcNS_11char_traitsIcEENS_9allocatorIcEEEENS_17__hash_value_typeIS6_N19Symbol_and_Assembly10SymbolInfoEEENS_8equal_toIS6_EENS_4hashIS6_EELb1EEclB7v160006ERKSA_RKS6_, symObjAddr: 0xFC10, symBinAddr: 0x100013AF0, symSize: 0x40 }
  - { offsetInCU: 0x30C11, offset: 0x30C11, size: 0x8, addend: 0x0, symName: __ZNSt3__112__hash_tableINS_17__hash_value_typeINS_12basic_stringIcNS_11char_traitsIcEENS_9allocatorIcEEEEN19Symbol_and_Assembly10SymbolInfoEEENS_22__unordered_map_hasherIS7_SA_NS_4hashIS7_EENS_8equal_toIS7_EELb1EEENS_21__unordered_map_equalIS7_SA_SF_SD_Lb1EEENS5_ISA_EEE21__construct_node_hashIRKNS_21piecewise_construct_tEJNS_5tupleIJRKS7_EEENSP_IJEEEEEENS_10unique_ptrINS_11__hash_nodeISA_PvEENS_22__hash_node_destructorINS5_ISX_EEEEEEmOT_DpOT0_, symObjAddr: 0xFC50, symBinAddr: 0x100013B30, symSize: 0x150 }
  - { offsetInCU: 0x30CAD, offset: 0x30CAD, size: 0x8, addend: 0x0, symName: __ZNSt3__112__hash_tableINS_17__hash_value_typeINS_12basic_stringIcNS_11char_traitsIcEENS_9allocatorIcEEEEN19Symbol_and_Assembly10SymbolInfoEEENS_22__unordered_map_hasherIS7_SA_NS_4hashIS7_EENS_8equal_toIS7_EELb1EEENS_21__unordered_map_equalIS7_SA_SF_SD_Lb1EEENS5_ISA_EEE4sizeB7v160006Ev, symObjAddr: 0xFDA0, symBinAddr: 0x100013C80, symSize: 0x20 }
  - { offsetInCU: 0x30CD3, offset: 0x30CD3, size: 0x8, addend: 0x0, symName: __ZNSt3__112__hash_tableINS_17__hash_value_typeINS_12basic_stringIcNS_11char_traitsIcEENS_9allocatorIcEEEEN19Symbol_and_Assembly10SymbolInfoEEENS_22__unordered_map_hasherIS7_SA_NS_4hashIS7_EENS_8equal_toIS7_EELb1EEENS_21__unordered_map_equalIS7_SA_SF_SD_Lb1EEENS5_ISA_EEE15max_load_factorB7v160006Ev, symObjAddr: 0xFDC0, symBinAddr: 0x100013CA0, symSize: 0x20 }
  - { offsetInCU: 0x30CF9, offset: 0x30CF9, size: 0x8, addend: 0x0, symName: __ZNSt3__112__hash_tableINS_17__hash_value_typeINS_12basic_stringIcNS_11char_traitsIcEENS_9allocatorIcEEEEN19Symbol_and_Assembly10SymbolInfoEEENS_22__unordered_map_hasherIS7_SA_NS_4hashIS7_EENS_8equal_toIS7_EELb1EEENS_21__unordered_map_equalIS7_SA_SF_SD_Lb1EEENS5_ISA_EEE15__rehash_uniqueB7v160006Em, symObjAddr: 0xFDE0, symBinAddr: 0x100013CC0, symSize: 0x30 }
  - { offsetInCU: 0x30D2E, offset: 0x30D2E, size: 0x8, addend: 0x0, symName: __ZNSt3__116__hash_node_baseIPNS_11__hash_nodeINS_17__hash_value_typeINS_12basic_stringIcNS_11char_traitsIcEENS_9allocatorIcEEEEN19Symbol_and_Assembly10SymbolInfoEEEPvEEE5__ptrB7v160006Ev, symObjAddr: 0xFE10, symBinAddr: 0x100013CF0, symSize: 0x20 }
  - { offsetInCU: 0x30D54, offset: 0x30D54, size: 0x8, addend: 0x0, symName: __ZNKSt3__110unique_ptrINS_11__hash_nodeINS_17__hash_value_typeINS_12basic_stringIcNS_11char_traitsIcEENS_9allocatorIcEEEEN19Symbol_and_Assembly10SymbolInfoEEEPvEENS_22__hash_node_destructorINS6_ISD_EEEEEptB7v160006Ev, symObjAddr: 0xFE30, symBinAddr: 0x100013D10, symSize: 0x20 }
  - { offsetInCU: 0x30D7A, offset: 0x30D7A, size: 0x8, addend: 0x0, symName: __ZNKSt3__110unique_ptrINS_11__hash_nodeINS_17__hash_value_typeINS_12basic_stringIcNS_11char_traitsIcEENS_9allocatorIcEEEEN19Symbol_and_Assembly10SymbolInfoEEEPvEENS_22__hash_node_destructorINS6_ISD_EEEEE3getB7v160006Ev, symObjAddr: 0xFE50, symBinAddr: 0x100013D30, symSize: 0x20 }
  - { offsetInCU: 0x30DA0, offset: 0x30DA0, size: 0x8, addend: 0x0, symName: __ZNSt3__110unique_ptrINS_11__hash_nodeINS_17__hash_value_typeINS_12basic_stringIcNS_11char_traitsIcEENS_9allocatorIcEEEEN19Symbol_and_Assembly10SymbolInfoEEEPvEENS_22__hash_node_destructorINS6_ISD_EEEEE7releaseB7v160006Ev, symObjAddr: 0xFE70, symBinAddr: 0x100013D50, symSize: 0x40 }
  - { offsetInCU: 0x30DD5, offset: 0x30DD5, size: 0x8, addend: 0x0, symName: __ZNSt3__110unique_ptrINS_11__hash_nodeINS_17__hash_value_typeINS_12basic_stringIcNS_11char_traitsIcEENS_9allocatorIcEEEEN19Symbol_and_Assembly10SymbolInfoEEEPvEENS_22__hash_node_destructorINS6_ISD_EEEEED1B7v160006Ev, symObjAddr: 0xFEB0, symBinAddr: 0x100013D90, symSize: 0x20 }
  - { offsetInCU: 0x30DFF, offset: 0x30DFF, size: 0x8, addend: 0x0, symName: __ZNSt3__115__hash_iteratorIPNS_11__hash_nodeINS_17__hash_value_typeINS_12basic_stringIcNS_11char_traitsIcEENS_9allocatorIcEEEEN19Symbol_and_Assembly10SymbolInfoEEEPvEEEC1B7v160006EPNS_16__hash_node_baseISE_EEPKv, symObjAddr: 0xFED0, symBinAddr: 0x100013DB0, symSize: 0x30 }
  - { offsetInCU: 0x30E4D, offset: 0x30E4D, size: 0x8, addend: 0x0, symName: __ZNSt3__14pairINS_15__hash_iteratorIPNS_11__hash_nodeINS_17__hash_value_typeINS_12basic_stringIcNS_11char_traitsIcEENS_9allocatorIcEEEEN19Symbol_and_Assembly10SymbolInfoEEEPvEEEEbEC1B7v160006ISG_RbLSD_0EEEOT_OT0_, symObjAddr: 0xFF00, symBinAddr: 0x100013DE0, symSize: 0x30 }
  - { offsetInCU: 0x30EAB, offset: 0x30EAB, size: 0x8, addend: 0x0, symName: __ZNSt3__117__compressed_pairImNS_22__unordered_map_hasherINS_12basic_stringIcNS_11char_traitsIcEENS_9allocatorIcEEEENS_17__hash_value_typeIS7_N19Symbol_and_Assembly10SymbolInfoEEENS_4hashIS7_EENS_8equal_toIS7_EELb1EEEE6secondB7v160006Ev, symObjAddr: 0xFF30, symBinAddr: 0x100013E10, symSize: 0x20 }
  - { offsetInCU: 0x30ED1, offset: 0x30ED1, size: 0x8, addend: 0x0, symName: __ZNSt3__122__compressed_pair_elemINS_22__unordered_map_hasherINS_12basic_stringIcNS_11char_traitsIcEENS_9allocatorIcEEEENS_17__hash_value_typeIS7_N19Symbol_and_Assembly10SymbolInfoEEENS_4hashIS7_EENS_8equal_toIS7_EELb1EEELi1ELb1EE5__getB7v160006Ev, symObjAddr: 0xFF50, symBinAddr: 0x100013E30, symSize: 0x10 }
  - { offsetInCU: 0x30EF7, offset: 0x30EF7, size: 0x8, addend: 0x0, symName: __ZNKSt3__110unique_ptrIA_PNS_16__hash_node_baseIPNS_11__hash_nodeINS_17__hash_value_typeINS_12basic_stringIcNS_11char_traitsIcEENS_9allocatorIcEEEEN19Symbol_and_Assembly10SymbolInfoEEEPvEEEENS_25__bucket_list_deallocatorINS7_ISH_EEEEE11get_deleterB7v160006Ev, symObjAddr: 0xFF60, symBinAddr: 0x100013E40, symSize: 0x20 }
  - { offsetInCU: 0x30F1D, offset: 0x30F1D, size: 0x8, addend: 0x0, symName: __ZNKSt3__125__bucket_list_deallocatorINS_9allocatorIPNS_16__hash_node_baseIPNS_11__hash_nodeINS_17__hash_value_typeINS_12basic_stringIcNS_11char_traitsIcEENS1_IcEEEEN19Symbol_and_Assembly10SymbolInfoEEEPvEEEEEEE4sizeB7v160006Ev, symObjAddr: 0xFF80, symBinAddr: 0x100013E60, symSize: 0x20 }
  - { offsetInCU: 0x30F43, offset: 0x30F43, size: 0x8, addend: 0x0, symName: __ZNKSt3__117__compressed_pairIPPNS_16__hash_node_baseIPNS_11__hash_nodeINS_17__hash_value_typeINS_12basic_stringIcNS_11char_traitsIcEENS_9allocatorIcEEEEN19Symbol_and_Assembly10SymbolInfoEEEPvEEEENS_25__bucket_list_deallocatorINS7_ISH_EEEEE6secondB7v160006Ev, symObjAddr: 0xFFA0, symBinAddr: 0x100013E80, symSize: 0x20 }
  - { offsetInCU: 0x30F69, offset: 0x30F69, size: 0x8, addend: 0x0, symName: __ZNKSt3__122__compressed_pair_elemINS_25__bucket_list_deallocatorINS_9allocatorIPNS_16__hash_node_baseIPNS_11__hash_nodeINS_17__hash_value_typeINS_12basic_stringIcNS_11char_traitsIcEENS2_IcEEEEN19Symbol_and_Assembly10SymbolInfoEEEPvEEEEEEEELi1ELb0EE5__getB7v160006Ev, symObjAddr: 0xFFC0, symBinAddr: 0x100013EA0, symSize: 0x10 }
  - { offsetInCU: 0x30F8F, offset: 0x30F8F, size: 0x8, addend: 0x0, symName: __ZNKSt3__117__compressed_pairImNS_9allocatorIPNS_16__hash_node_baseIPNS_11__hash_nodeINS_17__hash_value_typeINS_12basic_stringIcNS_11char_traitsIcEENS1_IcEEEEN19Symbol_and_Assembly10SymbolInfoEEEPvEEEEEEE5firstB7v160006Ev, symObjAddr: 0xFFD0, symBinAddr: 0x100013EB0, symSize: 0x20 }
  - { offsetInCU: 0x30FB5, offset: 0x30FB5, size: 0x8, addend: 0x0, symName: __ZNKSt3__117__compressed_pairIPPNS_16__hash_node_baseIPNS_11__hash_nodeINS_17__hash_value_typeINS_12basic_stringIcNS_11char_traitsIcEENS_9allocatorIcEEEEN19Symbol_and_Assembly10SymbolInfoEEEPvEEEENS_25__bucket_list_deallocatorINS7_ISH_EEEEE5firstB7v160006Ev, symObjAddr: 0xFFF0, symBinAddr: 0x100013ED0, symSize: 0x20 }
  - { offsetInCU: 0x30FDB, offset: 0x30FDB, size: 0x8, addend: 0x0, symName: __ZNKSt3__122__compressed_pair_elemIPPNS_16__hash_node_baseIPNS_11__hash_nodeINS_17__hash_value_typeINS_12basic_stringIcNS_11char_traitsIcEENS_9allocatorIcEEEEN19Symbol_and_Assembly10SymbolInfoEEEPvEEEELi0ELb0EE5__getB7v160006Ev, symObjAddr: 0x10010, symBinAddr: 0x100013EF0, symSize: 0x10 }
  - { offsetInCU: 0x31001, offset: 0x31001, size: 0x8, addend: 0x0, symName: __ZNSt3__117__compressed_pairIfNS_21__unordered_map_equalINS_12basic_stringIcNS_11char_traitsIcEENS_9allocatorIcEEEENS_17__hash_value_typeIS7_N19Symbol_and_Assembly10SymbolInfoEEENS_8equal_toIS7_EENS_4hashIS7_EELb1EEEE6secondB7v160006Ev, symObjAddr: 0x10020, symBinAddr: 0x100013F00, symSize: 0x20 }
  - { offsetInCU: 0x31027, offset: 0x31027, size: 0x8, addend: 0x0, symName: __ZNSt3__122__compressed_pair_elemINS_21__unordered_map_equalINS_12basic_stringIcNS_11char_traitsIcEENS_9allocatorIcEEEENS_17__hash_value_typeIS7_N19Symbol_and_Assembly10SymbolInfoEEENS_8equal_toIS7_EENS_4hashIS7_EELb1EEELi1ELb1EE5__getB7v160006Ev, symObjAddr: 0x10040, symBinAddr: 0x100013F20, symSize: 0x10 }
  - { offsetInCU: 0x3104D, offset: 0x3104D, size: 0x8, addend: 0x0, symName: __ZNKSt3__117__hash_value_typeINS_12basic_stringIcNS_11char_traitsIcEENS_9allocatorIcEEEEN19Symbol_and_Assembly10SymbolInfoEE11__get_valueB7v160006Ev, symObjAddr: 0x10050, symBinAddr: 0x100013F30, symSize: 0x20 }
  - { offsetInCU: 0x31073, offset: 0x31073, size: 0x8, addend: 0x0, symName: __ZNSt3__116allocator_traitsINS_9allocatorINS_11__hash_nodeINS_17__hash_value_typeINS_12basic_stringIcNS_11char_traitsIcEENS1_IcEEEEN19Symbol_and_Assembly10SymbolInfoEEEPvEEEEE8allocateB7v160006ERSE_m, symObjAddr: 0x100A0, symBinAddr: 0x100013F80, symSize: 0x30 }
  - { offsetInCU: 0x310A6, offset: 0x310A6, size: 0x8, addend: 0x0, symName: __ZNSt3__122__hash_node_destructorINS_9allocatorINS_11__hash_nodeINS_17__hash_value_typeINS_12basic_stringIcNS_11char_traitsIcEENS1_IcEEEEN19Symbol_and_Assembly10SymbolInfoEEEPvEEEEEC1B7v160006ERSE_b, symObjAddr: 0x100D0, symBinAddr: 0x100013FB0, symSize: 0x40 }
  - { offsetInCU: 0x310F4, offset: 0x310F4, size: 0x8, addend: 0x0, symName: __ZNSt3__110unique_ptrINS_11__hash_nodeINS_17__hash_value_typeINS_12basic_stringIcNS_11char_traitsIcEENS_9allocatorIcEEEEN19Symbol_and_Assembly10SymbolInfoEEEPvEENS_22__hash_node_destructorINS6_ISD_EEEEEC1B7v160006ILb1EvEEPSD_NS_16__dependent_typeINS_27__unique_ptr_deleter_sfinaeISG_EEXT_EE20__good_rval_ref_typeE, symObjAddr: 0x10110, symBinAddr: 0x100013FF0, symSize: 0x30 }
  - { offsetInCU: 0x31145, offset: 0x31145, size: 0x8, addend: 0x0, symName: __ZNSt3__116allocator_traitsINS_9allocatorINS_11__hash_nodeINS_17__hash_value_typeINS_12basic_stringIcNS_11char_traitsIcEENS1_IcEEEEN19Symbol_and_Assembly10SymbolInfoEEEPvEEEEE9constructB7v160006INS_4pairIKS8_SA_EEJRKNS_21piecewise_construct_tENS_5tupleIJRSI_EEENSN_IJEEEEvEEvRSE_PT_DpOT0_, symObjAddr: 0x10140, symBinAddr: 0x100014020, symSize: 0x40 }
  - { offsetInCU: 0x311C4, offset: 0x311C4, size: 0x8, addend: 0x0, symName: __ZNSt3__110unique_ptrINS_11__hash_nodeINS_17__hash_value_typeINS_12basic_stringIcNS_11char_traitsIcEENS_9allocatorIcEEEEN19Symbol_and_Assembly10SymbolInfoEEEPvEENS_22__hash_node_destructorINS6_ISD_EEEEE11get_deleterB7v160006Ev, symObjAddr: 0x10180, symBinAddr: 0x100014060, symSize: 0x20 }
  - { offsetInCU: 0x311EA, offset: 0x311EA, size: 0x8, addend: 0x0, symName: __ZNSt3__19allocatorINS_11__hash_nodeINS_17__hash_value_typeINS_12basic_stringIcNS_11char_traitsIcEENS0_IcEEEEN19Symbol_and_Assembly10SymbolInfoEEEPvEEE8allocateB7v160006Em, symObjAddr: 0x101A0, symBinAddr: 0x100014080, symSize: 0x50 }
  - { offsetInCU: 0x31229, offset: 0x31229, size: 0x8, addend: 0x0, symName: __ZNSt3__116allocator_traitsINS_9allocatorINS_11__hash_nodeINS_17__hash_value_typeINS_12basic_stringIcNS_11char_traitsIcEENS1_IcEEEEN19Symbol_and_Assembly10SymbolInfoEEEPvEEEEE8max_sizeB7v160006ISE_vEEmRKSE_, symObjAddr: 0x101F0, symBinAddr: 0x1000140D0, symSize: 0x20 }
  - { offsetInCU: 0x31257, offset: 0x31257, size: 0x8, addend: 0x0, symName: __ZNKSt3__19allocatorINS_11__hash_nodeINS_17__hash_value_typeINS_12basic_stringIcNS_11char_traitsIcEENS0_IcEEEEN19Symbol_and_Assembly10SymbolInfoEEEPvEEE8max_sizeB7v160006Ev, symObjAddr: 0x10210, symBinAddr: 0x1000140F0, symSize: 0x20 }
  - { offsetInCU: 0x3127D, offset: 0x3127D, size: 0x8, addend: 0x0, symName: __ZNSt3__122__hash_node_destructorINS_9allocatorINS_11__hash_nodeINS_17__hash_value_typeINS_12basic_stringIcNS_11char_traitsIcEENS1_IcEEEEN19Symbol_and_Assembly10SymbolInfoEEEPvEEEEEC2B7v160006ERSE_b, symObjAddr: 0x10230, symBinAddr: 0x100014110, symSize: 0x30 }
  - { offsetInCU: 0x312C5, offset: 0x312C5, size: 0x8, addend: 0x0, symName: __ZNSt3__110unique_ptrINS_11__hash_nodeINS_17__hash_value_typeINS_12basic_stringIcNS_11char_traitsIcEENS_9allocatorIcEEEEN19Symbol_and_Assembly10SymbolInfoEEEPvEENS_22__hash_node_destructorINS6_ISD_EEEEEC2B7v160006ILb1EvEEPSD_NS_16__dependent_typeINS_27__unique_ptr_deleter_sfinaeISG_EEXT_EE20__good_rval_ref_typeE, symObjAddr: 0x10260, symBinAddr: 0x100014140, symSize: 0x40 }
  - { offsetInCU: 0x31316, offset: 0x31316, size: 0x8, addend: 0x0, symName: __ZNSt3__117__compressed_pairIPNS_11__hash_nodeINS_17__hash_value_typeINS_12basic_stringIcNS_11char_traitsIcEENS_9allocatorIcEEEEN19Symbol_and_Assembly10SymbolInfoEEEPvEENS_22__hash_node_destructorINS6_ISD_EEEEEC1B7v160006IRSE_SH_EEOT_OT0_, symObjAddr: 0x102A0, symBinAddr: 0x100014180, symSize: 0x30 }
  - { offsetInCU: 0x3136E, offset: 0x3136E, size: 0x8, addend: 0x0, symName: __ZNSt3__117__compressed_pairIPNS_11__hash_nodeINS_17__hash_value_typeINS_12basic_stringIcNS_11char_traitsIcEENS_9allocatorIcEEEEN19Symbol_and_Assembly10SymbolInfoEEEPvEENS_22__hash_node_destructorINS6_ISD_EEEEEC2B7v160006IRSE_SH_EEOT_OT0_, symObjAddr: 0x102D0, symBinAddr: 0x1000141B0, symSize: 0x40 }
  - { offsetInCU: 0x313C6, offset: 0x313C6, size: 0x8, addend: 0x0, symName: __ZNSt3__122__compressed_pair_elemIPNS_11__hash_nodeINS_17__hash_value_typeINS_12basic_stringIcNS_11char_traitsIcEENS_9allocatorIcEEEEN19Symbol_and_Assembly10SymbolInfoEEEPvEELi0ELb0EEC2B7v160006IRSE_vEEOT_, symObjAddr: 0x10310, symBinAddr: 0x1000141F0, symSize: 0x20 }
  - { offsetInCU: 0x31408, offset: 0x31408, size: 0x8, addend: 0x0, symName: __ZNSt3__122__compressed_pair_elemINS_22__hash_node_destructorINS_9allocatorINS_11__hash_nodeINS_17__hash_value_typeINS_12basic_stringIcNS_11char_traitsIcEENS2_IcEEEEN19Symbol_and_Assembly10SymbolInfoEEEPvEEEEEELi1ELb0EEC2B7v160006ISG_vEEOT_, symObjAddr: 0x10330, symBinAddr: 0x100014210, symSize: 0x30 }
  - { offsetInCU: 0x3144A, offset: 0x3144A, size: 0x8, addend: 0x0, symName: __ZNSt3__19allocatorINS_11__hash_nodeINS_17__hash_value_typeINS_12basic_stringIcNS_11char_traitsIcEENS0_IcEEEEN19Symbol_and_Assembly10SymbolInfoEEEPvEEE9constructB7v160006INS_4pairIKS7_S9_EEJRKNS_21piecewise_construct_tENS_5tupleIJRSG_EEENSL_IJEEEEEEvPT_DpOT0_, symObjAddr: 0x10360, symBinAddr: 0x100014240, symSize: 0x40 }
  - { offsetInCU: 0x314C6, offset: 0x314C6, size: 0x8, addend: 0x0, symName: __ZNSt3__14pairIKNS_12basic_stringIcNS_11char_traitsIcEENS_9allocatorIcEEEEN19Symbol_and_Assembly10SymbolInfoEEC1B7v160006IJRS7_EJEEENS_21piecewise_construct_tENS_5tupleIJDpT_EEENSE_IJDpT0_EEE, symObjAddr: 0x103A0, symBinAddr: 0x100014280, symSize: 0x30 }
  - { offsetInCU: 0x3152D, offset: 0x3152D, size: 0x8, addend: 0x0, symName: __ZNSt3__14pairIKNS_12basic_stringIcNS_11char_traitsIcEENS_9allocatorIcEEEEN19Symbol_and_Assembly10SymbolInfoEEC1B7v160006IJRS7_EJEJLm0EEJEEENS_21piecewise_construct_tERNS_5tupleIJDpT_EEERNSE_IJDpT0_EEENS_15__tuple_indicesIJXspT1_EEEENSN_IJXspT2_EEEE, symObjAddr: 0x103D0, symBinAddr: 0x1000142B0, symSize: 0x30 }
  - { offsetInCU: 0x315BD, offset: 0x315BD, size: 0x8, addend: 0x0, symName: __ZNSt3__14pairIKNS_12basic_stringIcNS_11char_traitsIcEENS_9allocatorIcEEEEN19Symbol_and_Assembly10SymbolInfoEEC2B7v160006IJRS7_EJEJLm0EEJEEENS_21piecewise_construct_tERNS_5tupleIJDpT_EEERNSE_IJDpT0_EEENS_15__tuple_indicesIJXspT1_EEEENSN_IJXspT2_EEEE, symObjAddr: 0x10400, symBinAddr: 0x1000142E0, symSize: 0x80 }
  - { offsetInCU: 0x3164D, offset: 0x3164D, size: 0x8, addend: 0x0, symName: __ZN19Symbol_and_Assembly10SymbolInfoC1Ev, symObjAddr: 0x104A0, symBinAddr: 0x100014380, symSize: 0x20 }
  - { offsetInCU: 0x31679, offset: 0x31679, size: 0x8, addend: 0x0, symName: __ZNSt3__112__tuple_leafILm0ERKNS_12basic_stringIcNS_11char_traitsIcEENS_9allocatorIcEEEELb0EE3getB7v160006Ev, symObjAddr: 0x104C0, symBinAddr: 0x1000143A0, symSize: 0x20 }
  - { offsetInCU: 0x3169F, offset: 0x3169F, size: 0x8, addend: 0x0, symName: __ZN19Symbol_and_Assembly10SymbolInfoC2Ev, symObjAddr: 0x104E0, symBinAddr: 0x1000143C0, symSize: 0x20 }
  - { offsetInCU: 0x316CB, offset: 0x316CB, size: 0x8, addend: 0x0, symName: __ZN5ValueC1Ev, symObjAddr: 0x10500, symBinAddr: 0x1000143E0, symSize: 0x20 }
  - { offsetInCU: 0x316F5, offset: 0x316F5, size: 0x8, addend: 0x0, symName: __ZN5ValueC2Ev, symObjAddr: 0x10520, symBinAddr: 0x100014400, symSize: 0x50 }
  - { offsetInCU: 0x3171F, offset: 0x3171F, size: 0x8, addend: 0x0, symName: __ZNSt3__18optionalIiEC1B7v160006Ev, symObjAddr: 0x10570, symBinAddr: 0x100014450, symSize: 0x20 }
  - { offsetInCU: 0x31749, offset: 0x31749, size: 0x8, addend: 0x0, symName: __ZNSt3__18optionalIbEC1B7v160006Ev, symObjAddr: 0x10590, symBinAddr: 0x100014470, symSize: 0x20 }
  - { offsetInCU: 0x31773, offset: 0x31773, size: 0x8, addend: 0x0, symName: __ZNSt3__18optionalIdEC1B7v160006Ev, symObjAddr: 0x105B0, symBinAddr: 0x100014490, symSize: 0x20 }
  - { offsetInCU: 0x3179D, offset: 0x3179D, size: 0x8, addend: 0x0, symName: __ZNSt3__18optionalIiEC2B7v160006Ev, symObjAddr: 0x105D0, symBinAddr: 0x1000144B0, symSize: 0x20 }
  - { offsetInCU: 0x317CD, offset: 0x317CD, size: 0x8, addend: 0x0, symName: __ZNSt3__127__optional_move_assign_baseIiLb1EEC2Ev, symObjAddr: 0x105F0, symBinAddr: 0x1000144D0, symSize: 0x20 }
  - { offsetInCU: 0x31800, offset: 0x31800, size: 0x8, addend: 0x0, symName: __ZNSt3__127__optional_copy_assign_baseIiLb1EEC2Ev, symObjAddr: 0x10610, symBinAddr: 0x1000144F0, symSize: 0x20 }
  - { offsetInCU: 0x31833, offset: 0x31833, size: 0x8, addend: 0x0, symName: __ZNSt3__120__optional_move_baseIiLb1EEC2Ev, symObjAddr: 0x10630, symBinAddr: 0x100014510, symSize: 0x20 }
  - { offsetInCU: 0x31866, offset: 0x31866, size: 0x8, addend: 0x0, symName: __ZNSt3__120__optional_copy_baseIiLb1EEC2Ev, symObjAddr: 0x10650, symBinAddr: 0x100014530, symSize: 0x20 }
  - { offsetInCU: 0x31893, offset: 0x31893, size: 0x8, addend: 0x0, symName: __ZNSt3__123__optional_storage_baseIiLb0EEC2Ev, symObjAddr: 0x10670, symBinAddr: 0x100014550, symSize: 0x20 }
  - { offsetInCU: 0x318C0, offset: 0x318C0, size: 0x8, addend: 0x0, symName: __ZNSt3__124__optional_destruct_baseIiLb1EEC2B7v160006Ev, symObjAddr: 0x10690, symBinAddr: 0x100014570, symSize: 0x20 }
  - { offsetInCU: 0x318EA, offset: 0x318EA, size: 0x8, addend: 0x0, symName: __ZNSt3__18optionalIbEC2B7v160006Ev, symObjAddr: 0x106B0, symBinAddr: 0x100014590, symSize: 0x20 }
  - { offsetInCU: 0x3191A, offset: 0x3191A, size: 0x8, addend: 0x0, symName: __ZNSt3__127__optional_move_assign_baseIbLb1EEC2Ev, symObjAddr: 0x106D0, symBinAddr: 0x1000145B0, symSize: 0x20 }
  - { offsetInCU: 0x3194D, offset: 0x3194D, size: 0x8, addend: 0x0, symName: __ZNSt3__127__optional_copy_assign_baseIbLb1EEC2Ev, symObjAddr: 0x106F0, symBinAddr: 0x1000145D0, symSize: 0x20 }
  - { offsetInCU: 0x31980, offset: 0x31980, size: 0x8, addend: 0x0, symName: __ZNSt3__120__optional_move_baseIbLb1EEC2Ev, symObjAddr: 0x10710, symBinAddr: 0x1000145F0, symSize: 0x20 }
  - { offsetInCU: 0x319B3, offset: 0x319B3, size: 0x8, addend: 0x0, symName: __ZNSt3__120__optional_copy_baseIbLb1EEC2Ev, symObjAddr: 0x10730, symBinAddr: 0x100014610, symSize: 0x20 }
  - { offsetInCU: 0x319E0, offset: 0x319E0, size: 0x8, addend: 0x0, symName: __ZNSt3__123__optional_storage_baseIbLb0EEC2Ev, symObjAddr: 0x10750, symBinAddr: 0x100014630, symSize: 0x20 }
  - { offsetInCU: 0x31A0D, offset: 0x31A0D, size: 0x8, addend: 0x0, symName: __ZNSt3__124__optional_destruct_baseIbLb1EEC2B7v160006Ev, symObjAddr: 0x10770, symBinAddr: 0x100014650, symSize: 0x20 }
  - { offsetInCU: 0x31A37, offset: 0x31A37, size: 0x8, addend: 0x0, symName: __ZNSt3__18optionalIdEC2B7v160006Ev, symObjAddr: 0x10790, symBinAddr: 0x100014670, symSize: 0x20 }
  - { offsetInCU: 0x31A67, offset: 0x31A67, size: 0x8, addend: 0x0, symName: __ZNSt3__127__optional_move_assign_baseIdLb1EEC2Ev, symObjAddr: 0x107B0, symBinAddr: 0x100014690, symSize: 0x20 }
  - { offsetInCU: 0x31A9A, offset: 0x31A9A, size: 0x8, addend: 0x0, symName: __ZNSt3__127__optional_copy_assign_baseIdLb1EEC2Ev, symObjAddr: 0x107D0, symBinAddr: 0x1000146B0, symSize: 0x20 }
  - { offsetInCU: 0x31ACD, offset: 0x31ACD, size: 0x8, addend: 0x0, symName: __ZNSt3__120__optional_move_baseIdLb1EEC2Ev, symObjAddr: 0x107F0, symBinAddr: 0x1000146D0, symSize: 0x20 }
  - { offsetInCU: 0x31B00, offset: 0x31B00, size: 0x8, addend: 0x0, symName: __ZNSt3__120__optional_copy_baseIdLb1EEC2Ev, symObjAddr: 0x10810, symBinAddr: 0x1000146F0, symSize: 0x20 }
  - { offsetInCU: 0x31B2D, offset: 0x31B2D, size: 0x8, addend: 0x0, symName: __ZNSt3__123__optional_storage_baseIdLb0EEC2Ev, symObjAddr: 0x10830, symBinAddr: 0x100014710, symSize: 0x20 }
  - { offsetInCU: 0x31B5A, offset: 0x31B5A, size: 0x8, addend: 0x0, symName: __ZNSt3__124__optional_destruct_baseIdLb1EEC2B7v160006Ev, symObjAddr: 0x10850, symBinAddr: 0x100014730, symSize: 0x20 }
  - { offsetInCU: 0x31B84, offset: 0x31B84, size: 0x8, addend: 0x0, symName: __ZNSt3__117__compressed_pairIPNS_11__hash_nodeINS_17__hash_value_typeINS_12basic_stringIcNS_11char_traitsIcEENS_9allocatorIcEEEEN19Symbol_and_Assembly10SymbolInfoEEEPvEENS_22__hash_node_destructorINS6_ISD_EEEEE6secondB7v160006Ev, symObjAddr: 0x10870, symBinAddr: 0x100014750, symSize: 0x20 }
  - { offsetInCU: 0x31BAA, offset: 0x31BAA, size: 0x8, addend: 0x0, symName: __ZNSt3__122__compressed_pair_elemINS_22__hash_node_destructorINS_9allocatorINS_11__hash_nodeINS_17__hash_value_typeINS_12basic_stringIcNS_11char_traitsIcEENS2_IcEEEEN19Symbol_and_Assembly10SymbolInfoEEEPvEEEEEELi1ELb0EE5__getB7v160006Ev, symObjAddr: 0x10890, symBinAddr: 0x100014770, symSize: 0x10 }
  - { offsetInCU: 0x31BD0, offset: 0x31BD0, size: 0x8, addend: 0x0, symName: __ZNSt3__117__compressed_pairImNS_22__unordered_map_hasherINS_12basic_stringIcNS_11char_traitsIcEENS_9allocatorIcEEEENS_17__hash_value_typeIS7_N19Symbol_and_Assembly10SymbolInfoEEENS_4hashIS7_EENS_8equal_toIS7_EELb1EEEE5firstB7v160006Ev, symObjAddr: 0x108A0, symBinAddr: 0x100014780, symSize: 0x20 }
  - { offsetInCU: 0x31BF6, offset: 0x31BF6, size: 0x8, addend: 0x0, symName: __ZNSt3__117__compressed_pairIfNS_21__unordered_map_equalINS_12basic_stringIcNS_11char_traitsIcEENS_9allocatorIcEEEENS_17__hash_value_typeIS7_N19Symbol_and_Assembly10SymbolInfoEEENS_8equal_toIS7_EENS_4hashIS7_EELb1EEEE5firstB7v160006Ev, symObjAddr: 0x108C0, symBinAddr: 0x1000147A0, symSize: 0x20 }
  - { offsetInCU: 0x31C1C, offset: 0x31C1C, size: 0x8, addend: 0x0, symName: __ZNSt3__112__hash_tableINS_17__hash_value_typeINS_12basic_stringIcNS_11char_traitsIcEENS_9allocatorIcEEEEN19Symbol_and_Assembly10SymbolInfoEEENS_22__unordered_map_hasherIS7_SA_NS_4hashIS7_EENS_8equal_toIS7_EELb1EEENS_21__unordered_map_equalIS7_SA_SF_SD_Lb1EEENS5_ISA_EEE8__rehashILb1EEEvm, symObjAddr: 0x108E0, symBinAddr: 0x1000147C0, symSize: 0x230 }
  - { offsetInCU: 0x31C6C, offset: 0x31C6C, size: 0x8, addend: 0x0, symName: __ZNSt3__112__hash_tableINS_17__hash_value_typeINS_12basic_stringIcNS_11char_traitsIcEENS_9allocatorIcEEEEN19Symbol_and_Assembly10SymbolInfoEEENS_22__unordered_map_hasherIS7_SA_NS_4hashIS7_EENS_8equal_toIS7_EELb1EEENS_21__unordered_map_equalIS7_SA_SF_SD_Lb1EEENS5_ISA_EEE11__do_rehashILb1EEEvm, symObjAddr: 0x10B10, symBinAddr: 0x1000149F0, symSize: 0x260 }
  - { offsetInCU: 0x31D4F, offset: 0x31D4F, size: 0x8, addend: 0x0, symName: __ZNSt3__110unique_ptrIA_PNS_16__hash_node_baseIPNS_11__hash_nodeINS_17__hash_value_typeINS_12basic_stringIcNS_11char_traitsIcEENS_9allocatorIcEEEEN19Symbol_and_Assembly10SymbolInfoEEEPvEEEENS_25__bucket_list_deallocatorINS7_ISH_EEEEE11get_deleterB7v160006Ev, symObjAddr: 0x10D80, symBinAddr: 0x100014C60, symSize: 0x20 }
  - { offsetInCU: 0x31D75, offset: 0x31D75, size: 0x8, addend: 0x0, symName: __ZNSt3__110unique_ptrIA_PNS_16__hash_node_baseIPNS_11__hash_nodeINS_17__hash_value_typeINS_12basic_stringIcNS_11char_traitsIcEENS_9allocatorIcEEEEN19Symbol_and_Assembly10SymbolInfoEEEPvEEEENS_25__bucket_list_deallocatorINS7_ISH_EEEEE5resetB7v160006IPSH_EENS_9enable_ifIXsr28_CheckArrayPointerConversionIT_EE5valueEvE4typeESQ_, symObjAddr: 0x10DA0, symBinAddr: 0x100014C80, symSize: 0x70 }
  - { offsetInCU: 0x31DC2, offset: 0x31DC2, size: 0x8, addend: 0x0, symName: __ZNSt3__116allocator_traitsINS_9allocatorIPNS_16__hash_node_baseIPNS_11__hash_nodeINS_17__hash_value_typeINS_12basic_stringIcNS_11char_traitsIcEENS1_IcEEEEN19Symbol_and_Assembly10SymbolInfoEEEPvEEEEEEE8allocateB7v160006ERSI_m, symObjAddr: 0x10E10, symBinAddr: 0x100014CF0, symSize: 0x30 }
  - { offsetInCU: 0x31DF5, offset: 0x31DF5, size: 0x8, addend: 0x0, symName: __ZNSt3__19allocatorIPNS_16__hash_node_baseIPNS_11__hash_nodeINS_17__hash_value_typeINS_12basic_stringIcNS_11char_traitsIcEENS0_IcEEEEN19Symbol_and_Assembly10SymbolInfoEEEPvEEEEE8allocateB7v160006Em, symObjAddr: 0x10E40, symBinAddr: 0x100014D20, symSize: 0x50 }
  - { offsetInCU: 0x31E34, offset: 0x31E34, size: 0x8, addend: 0x0, symName: __ZNSt3__116allocator_traitsINS_9allocatorIPNS_16__hash_node_baseIPNS_11__hash_nodeINS_17__hash_value_typeINS_12basic_stringIcNS_11char_traitsIcEENS1_IcEEEEN19Symbol_and_Assembly10SymbolInfoEEEPvEEEEEEE8max_sizeB7v160006ISI_vEEmRKSI_, symObjAddr: 0x10E90, symBinAddr: 0x100014D70, symSize: 0x20 }
  - { offsetInCU: 0x31E62, offset: 0x31E62, size: 0x8, addend: 0x0, symName: __ZNKSt3__19allocatorIPNS_16__hash_node_baseIPNS_11__hash_nodeINS_17__hash_value_typeINS_12basic_stringIcNS_11char_traitsIcEENS0_IcEEEEN19Symbol_and_Assembly10SymbolInfoEEEPvEEEEE8max_sizeB7v160006Ev, symObjAddr: 0x10EB0, symBinAddr: 0x100014D90, symSize: 0x20 }
  - { offsetInCU: 0x31E88, offset: 0x31E88, size: 0x8, addend: 0x0, symName: __ZNKSt3__117__compressed_pairIPNS_11__hash_nodeINS_17__hash_value_typeINS_12basic_stringIcNS_11char_traitsIcEENS_9allocatorIcEEEEN19Symbol_and_Assembly10SymbolInfoEEEPvEENS_22__hash_node_destructorINS6_ISD_EEEEE5firstB7v160006Ev, symObjAddr: 0x10ED0, symBinAddr: 0x100014DB0, symSize: 0x20 }
  - { offsetInCU: 0x31EAE, offset: 0x31EAE, size: 0x8, addend: 0x0, symName: __ZNKSt3__122__compressed_pair_elemIPNS_11__hash_nodeINS_17__hash_value_typeINS_12basic_stringIcNS_11char_traitsIcEENS_9allocatorIcEEEEN19Symbol_and_Assembly10SymbolInfoEEEPvEELi0ELb0EE5__getB7v160006Ev, symObjAddr: 0x10EF0, symBinAddr: 0x100014DD0, symSize: 0x10 }
  - { offsetInCU: 0x31ED4, offset: 0x31ED4, size: 0x8, addend: 0x0, symName: __ZNSt3__117__compressed_pairIPNS_11__hash_nodeINS_17__hash_value_typeINS_12basic_stringIcNS_11char_traitsIcEENS_9allocatorIcEEEEN19Symbol_and_Assembly10SymbolInfoEEEPvEENS_22__hash_node_destructorINS6_ISD_EEEEE5firstB7v160006Ev, symObjAddr: 0x10F00, symBinAddr: 0x100014DE0, symSize: 0x20 }
  - { offsetInCU: 0x31EFA, offset: 0x31EFA, size: 0x8, addend: 0x0, symName: __ZNSt3__122__compressed_pair_elemIPNS_11__hash_nodeINS_17__hash_value_typeINS_12basic_stringIcNS_11char_traitsIcEENS_9allocatorIcEEEEN19Symbol_and_Assembly10SymbolInfoEEEPvEELi0ELb0EE5__getB7v160006Ev, symObjAddr: 0x10F20, symBinAddr: 0x100014E00, symSize: 0x10 }
  - { offsetInCU: 0x31F20, offset: 0x31F20, size: 0x8, addend: 0x0, symName: __ZNSt3__110unique_ptrINS_11__hash_nodeINS_17__hash_value_typeINS_12basic_stringIcNS_11char_traitsIcEENS_9allocatorIcEEEEN19Symbol_and_Assembly10SymbolInfoEEEPvEENS_22__hash_node_destructorINS6_ISD_EEEEED2B7v160006Ev, symObjAddr: 0x10F30, symBinAddr: 0x100014E10, symSize: 0x20 }
  - { offsetInCU: 0x31F4A, offset: 0x31F4A, size: 0x8, addend: 0x0, symName: __ZNSt3__110unique_ptrINS_11__hash_nodeINS_17__hash_value_typeINS_12basic_stringIcNS_11char_traitsIcEENS_9allocatorIcEEEEN19Symbol_and_Assembly10SymbolInfoEEEPvEENS_22__hash_node_destructorINS6_ISD_EEEEE5resetB7v160006EPSD_, symObjAddr: 0x10F50, symBinAddr: 0x100014E30, symSize: 0x70 }
  - { offsetInCU: 0x31F8E, offset: 0x31F8E, size: 0x8, addend: 0x0, symName: __ZNSt3__122__hash_node_destructorINS_9allocatorINS_11__hash_nodeINS_17__hash_value_typeINS_12basic_stringIcNS_11char_traitsIcEENS1_IcEEEEN19Symbol_and_Assembly10SymbolInfoEEEPvEEEEEclB7v160006EPSD_, symObjAddr: 0x10FC0, symBinAddr: 0x100014EA0, symSize: 0x80 }
  - { offsetInCU: 0x31FC3, offset: 0x31FC3, size: 0x8, addend: 0x0, symName: __ZNSt3__115__hash_iteratorIPNS_11__hash_nodeINS_17__hash_value_typeINS_12basic_stringIcNS_11char_traitsIcEENS_9allocatorIcEEEEN19Symbol_and_Assembly10SymbolInfoEEEPvEEEC2B7v160006EPNS_16__hash_node_baseISE_EEPKv, symObjAddr: 0x11040, symBinAddr: 0x100014F20, symSize: 0x20 }
  - { offsetInCU: 0x3200B, offset: 0x3200B, size: 0x8, addend: 0x0, symName: __ZNSt3__14pairINS_15__hash_iteratorIPNS_11__hash_nodeINS_17__hash_value_typeINS_12basic_stringIcNS_11char_traitsIcEENS_9allocatorIcEEEEN19Symbol_and_Assembly10SymbolInfoEEEPvEEEEbEC2B7v160006ISG_RbLSD_0EEEOT_OT0_, symObjAddr: 0x11060, symBinAddr: 0x100014F40, symSize: 0x30 }
  - { offsetInCU: 0x32069, offset: 0x32069, size: 0x8, addend: 0x0, symName: __ZNSt3__15tupleIJRKNS_12basic_stringIcNS_11char_traitsIcEENS_9allocatorIcEEEEEEC1B7v160006INS_4_AndELi0EEES8_, symObjAddr: 0x11090, symBinAddr: 0x100014F70, symSize: 0x30 }
  - { offsetInCU: 0x320B1, offset: 0x320B1, size: 0x8, addend: 0x0, symName: __ZNSt3__15tupleIJRKNS_12basic_stringIcNS_11char_traitsIcEENS_9allocatorIcEEEEEEC2B7v160006INS_4_AndELi0EEES8_, symObjAddr: 0x110C0, symBinAddr: 0x100014FA0, symSize: 0x30 }
  - { offsetInCU: 0x320F9, offset: 0x320F9, size: 0x8, addend: 0x0, symName: __ZNSt3__112__tuple_implINS_15__tuple_indicesIJLm0EEEEJRKNS_12basic_stringIcNS_11char_traitsIcEENS_9allocatorIcEEEEEEC1B7v160006IJLm0EEJSA_EJEJEJSA_EEENS1_IJXspT_EEEENS_13__tuple_typesIJDpT0_EEENS1_IJXspT1_EEEENSE_IJDpT2_EEEDpOT3_, symObjAddr: 0x110F0, symBinAddr: 0x100014FD0, symSize: 0x30 }
  - { offsetInCU: 0x3218E, offset: 0x3218E, size: 0x8, addend: 0x0, symName: __ZNSt3__112__tuple_implINS_15__tuple_indicesIJLm0EEEEJRKNS_12basic_stringIcNS_11char_traitsIcEENS_9allocatorIcEEEEEEC2B7v160006IJLm0EEJSA_EJEJEJSA_EEENS1_IJXspT_EEEENS_13__tuple_typesIJDpT0_EEENS1_IJXspT1_EEEENSE_IJDpT2_EEEDpOT3_, symObjAddr: 0x11120, symBinAddr: 0x100015000, symSize: 0x30 }
  - { offsetInCU: 0x32223, offset: 0x32223, size: 0x8, addend: 0x0, symName: __ZNSt3__112__tuple_leafILm0ERKNS_12basic_stringIcNS_11char_traitsIcEENS_9allocatorIcEEEELb0EEC2B7v160006IS8_vEEOT_, symObjAddr: 0x11150, symBinAddr: 0x100015030, symSize: 0x20 }
  - { offsetInCU: 0x32266, offset: 0x32266, size: 0x8, addend: 0x0, symName: __ZNSt3__114pointer_traitsIPNS_17__hash_value_typeINS_12basic_stringIcNS_11char_traitsIcEENS_9allocatorIcEEEEN19Symbol_and_Assembly10SymbolInfoEEEE10pointer_toB7v160006ERSA_, symObjAddr: 0x11170, symBinAddr: 0x100015050, symSize: 0x10 }
  - { offsetInCU: 0x32289, offset: 0x32289, size: 0x8, addend: 0x0, symName: __ZN5ValueC2ERKS_, symObjAddr: 0x11180, symBinAddr: 0x100015060, symSize: 0x50 }
  - { offsetInCU: 0x322BE, offset: 0x322BE, size: 0x8, addend: 0x0, symName: __ZN5ValueC2ENS_4TypeE, symObjAddr: 0x111D0, symBinAddr: 0x1000150B0, symSize: 0xD0 }
  - { offsetInCU: 0x322F6, offset: 0x322F6, size: 0x8, addend: 0x0, symName: __ZNSt3__18optionalIiEaSB7v160006ENS_9nullopt_tE, symObjAddr: 0x112A0, symBinAddr: 0x100015180, symSize: 0x30 }
  - { offsetInCU: 0x32328, offset: 0x32328, size: 0x8, addend: 0x0, symName: __ZNSt3__18optionalIbEaSB7v160006ENS_9nullopt_tE, symObjAddr: 0x112D0, symBinAddr: 0x1000151B0, symSize: 0x30 }
  - { offsetInCU: 0x3235A, offset: 0x3235A, size: 0x8, addend: 0x0, symName: __ZNSt3__18optionalIdEaSB7v160006ENS_9nullopt_tE, symObjAddr: 0x11300, symBinAddr: 0x1000151E0, symSize: 0x30 }
  - { offsetInCU: 0x3238C, offset: 0x3238C, size: 0x8, addend: 0x0, symName: __ZNSt3__124__optional_destruct_baseIiLb1EE5resetB7v160006Ev, symObjAddr: 0x11330, symBinAddr: 0x100015210, symSize: 0x30 }
  - { offsetInCU: 0x323B2, offset: 0x323B2, size: 0x8, addend: 0x0, symName: __ZNSt3__124__optional_destruct_baseIbLb1EE5resetB7v160006Ev, symObjAddr: 0x11360, symBinAddr: 0x100015240, symSize: 0x30 }
  - { offsetInCU: 0x323D8, offset: 0x323D8, size: 0x8, addend: 0x0, symName: __ZNSt3__124__optional_destruct_baseIdLb1EE5resetB7v160006Ev, symObjAddr: 0x11390, symBinAddr: 0x100015270, symSize: 0x30 }
  - { offsetInCU: 0x323FE, offset: 0x323FE, size: 0x8, addend: 0x0, symName: __ZN14SyntaxAnalyzer14Parameter_ListEv, symObjAddr: 0x113F0, symBinAddr: 0x1000152D0, symSize: 0x50 }
  - { offsetInCU: 0x32424, offset: 0x32424, size: 0x8, addend: 0x0, symName: __ZN14SyntaxAnalyzer9ParameterEv, symObjAddr: 0x11440, symBinAddr: 0x100015320, symSize: 0x60 }
  - { offsetInCU: 0x3244A, offset: 0x3244A, size: 0x8, addend: 0x0, symName: __ZN14SyntaxAnalyzer1PEv, symObjAddr: 0x114A0, symBinAddr: 0x100015380, symSize: 0x150 }
  - { offsetInCU: 0x32495, offset: 0x32495, size: 0x8, addend: 0x0, symName: __ZN14SyntaxAnalyzer3IDSEv, symObjAddr: 0x115F0, symBinAddr: 0x1000154D0, symSize: 0x30 }
  - { offsetInCU: 0x324BB, offset: 0x324BB, size: 0x8, addend: 0x0, symName: __ZN14SyntaxAnalyzer9QualifierEv, symObjAddr: 0x11620, symBinAddr: 0x100015500, symSize: 0x210 }
  - { offsetInCU: 0x324F0, offset: 0x324F0, size: 0x8, addend: 0x0, symName: __ZN14SyntaxAnalyzer10IdentifierEv, symObjAddr: 0x11830, symBinAddr: 0x100015710, symSize: 0xB0 }
  - { offsetInCU: 0x32525, offset: 0x32525, size: 0x8, addend: 0x0, symName: __ZN14SyntaxAnalyzer2idEv, symObjAddr: 0x118E0, symBinAddr: 0x1000157C0, symSize: 0x150 }
  - { offsetInCU: 0x32570, offset: 0x32570, size: 0x8, addend: 0x0, symName: __ZN5ValueC1Eb, symObjAddr: 0x11A30, symBinAddr: 0x100015910, symSize: 0x30 }
  - { offsetInCU: 0x325A8, offset: 0x325A8, size: 0x8, addend: 0x0, symName: __ZN5ValueC2Eb, symObjAddr: 0x11A60, symBinAddr: 0x100015940, symSize: 0x60 }
  - { offsetInCU: 0x325E0, offset: 0x325E0, size: 0x8, addend: 0x0, symName: __ZNSt3__18optionalIbEC1B7v160006IRbLi0EEEOT_, symObjAddr: 0x11AC0, symBinAddr: 0x1000159A0, symSize: 0x30 }
  - { offsetInCU: 0x32628, offset: 0x32628, size: 0x8, addend: 0x0, symName: __ZNSt3__18optionalIbEC2B7v160006IRbLi0EEEOT_, symObjAddr: 0x11AF0, symBinAddr: 0x1000159D0, symSize: 0x30 }
  - { offsetInCU: 0x32670, offset: 0x32670, size: 0x8, addend: 0x0, symName: __ZNSt3__127__optional_move_assign_baseIbLb1EECI2NS_24__optional_destruct_baseIbLb1EEEIJRbEEENS_10in_place_tEDpOT_, symObjAddr: 0x11B20, symBinAddr: 0x100015A00, symSize: 0x30 }
  - { offsetInCU: 0x326AF, offset: 0x326AF, size: 0x8, addend: 0x0, symName: __ZNSt3__127__optional_copy_assign_baseIbLb1EECI2NS_24__optional_destruct_baseIbLb1EEEIJRbEEENS_10in_place_tEDpOT_, symObjAddr: 0x11B50, symBinAddr: 0x100015A30, symSize: 0x30 }
  - { offsetInCU: 0x326EE, offset: 0x326EE, size: 0x8, addend: 0x0, symName: __ZNSt3__120__optional_move_baseIbLb1EECI2NS_24__optional_destruct_baseIbLb1EEEIJRbEEENS_10in_place_tEDpOT_, symObjAddr: 0x11B80, symBinAddr: 0x100015A60, symSize: 0x30 }
  - { offsetInCU: 0x3272D, offset: 0x3272D, size: 0x8, addend: 0x0, symName: __ZNSt3__120__optional_copy_baseIbLb1EECI2NS_24__optional_destruct_baseIbLb1EEEIJRbEEENS_10in_place_tEDpOT_, symObjAddr: 0x11BB0, symBinAddr: 0x100015A90, symSize: 0x30 }
  - { offsetInCU: 0x3276C, offset: 0x3276C, size: 0x8, addend: 0x0, symName: __ZNSt3__123__optional_storage_baseIbLb0EECI2NS_24__optional_destruct_baseIbLb1EEEIJRbEEENS_10in_place_tEDpOT_, symObjAddr: 0x11BE0, symBinAddr: 0x100015AC0, symSize: 0x30 }
  - { offsetInCU: 0x327AB, offset: 0x327AB, size: 0x8, addend: 0x0, symName: __ZNSt3__124__optional_destruct_baseIbLb1EEC2B7v160006IJRbEEENS_10in_place_tEDpOT_, symObjAddr: 0x11C10, symBinAddr: 0x100015AF0, symSize: 0x30 }
  - { offsetInCU: 0x327FB, offset: 0x327FB, size: 0x8, addend: 0x0, symName: __ZNSt3__112basic_stringIcNS_11char_traitsIcEENS_9allocatorIcEEEaSB7v160006EOS5_, symObjAddr: 0x11C40, symBinAddr: 0x100015B20, symSize: 0x30 }
  - { offsetInCU: 0x32830, offset: 0x32830, size: 0x8, addend: 0x0, symName: __ZNSt3__112basic_stringIcNS_11char_traitsIcEENS_9allocatorIcEEE13__move_assignB7v160006ERS5_NS_17integral_constantIbLb1EEE, symObjAddr: 0x11C70, symBinAddr: 0x100015B50, symSize: 0xD0 }
  - { offsetInCU: 0x32873, offset: 0x32873, size: 0x8, addend: 0x0, symName: __ZNSt3__116allocator_traitsINS_9allocatorIcEEE10deallocateB7v160006ERS2_Pcm, symObjAddr: 0x11D40, symBinAddr: 0x100015C20, symSize: 0x30 }
  - { offsetInCU: 0x328B5, offset: 0x328B5, size: 0x8, addend: 0x0, symName: __ZNSt3__112basic_stringIcNS_11char_traitsIcEENS_9allocatorIcEEE7__allocB7v160006Ev, symObjAddr: 0x11D70, symBinAddr: 0x100015C50, symSize: 0x20 }
  - { offsetInCU: 0x328DB, offset: 0x328DB, size: 0x8, addend: 0x0, symName: __ZNKSt3__112basic_stringIcNS_11char_traitsIcEENS_9allocatorIcEEE14__get_long_capB7v160006Ev, symObjAddr: 0x11D90, symBinAddr: 0x100015C70, symSize: 0x30 }
  - { offsetInCU: 0x32901, offset: 0x32901, size: 0x8, addend: 0x0, symName: __ZNSt3__112basic_stringIcNS_11char_traitsIcEENS_9allocatorIcEEE19__move_assign_allocB7v160006ERS5_, symObjAddr: 0x11DC0, symBinAddr: 0x100015CA0, symSize: 0x30 }
  - { offsetInCU: 0x32936, offset: 0x32936, size: 0x8, addend: 0x0, symName: __ZNSt3__19allocatorIcE10deallocateB7v160006EPcm, symObjAddr: 0x11DF0, symBinAddr: 0x100015CD0, symSize: 0x40 }
  - { offsetInCU: 0x32978, offset: 0x32978, size: 0x8, addend: 0x0, symName: __ZNSt3__117__compressed_pairINS_12basic_stringIcNS_11char_traitsIcEENS_9allocatorIcEEE5__repES5_E6secondB7v160006Ev, symObjAddr: 0x11E30, symBinAddr: 0x100015D10, symSize: 0x20 }
  - { offsetInCU: 0x3299E, offset: 0x3299E, size: 0x8, addend: 0x0, symName: __ZNSt3__122__compressed_pair_elemINS_9allocatorIcEELi1ELb1EE5__getB7v160006Ev, symObjAddr: 0x11E50, symBinAddr: 0x100015D30, symSize: 0x10 }
  - { offsetInCU: 0x329C4, offset: 0x329C4, size: 0x8, addend: 0x0, symName: __ZNSt3__112basic_stringIcNS_11char_traitsIcEENS_9allocatorIcEEE19__move_assign_allocB7v160006ERS5_NS_17integral_constantIbLb1EEE, symObjAddr: 0x11E60, symBinAddr: 0x100015D40, symSize: 0x30 }
  - { offsetInCU: 0x32A05, offset: 0x32A05, size: 0x8, addend: 0x0, symName: __ZN14SyntaxAnalyzer16Declaration_ListEv, symObjAddr: 0x11E90, symBinAddr: 0x100015D70, symSize: 0x110 }
  - { offsetInCU: 0x32A3A, offset: 0x32A3A, size: 0x8, addend: 0x0, symName: __ZN14SyntaxAnalyzer11DeclarationEv, symObjAddr: 0x11FA0, symBinAddr: 0x100015E80, symSize: 0xE0 }
  - { offsetInCU: 0x32A6F, offset: 0x32A6F, size: 0x8, addend: 0x0, symName: __ZN14SyntaxAnalyzer1DEv, symObjAddr: 0x12080, symBinAddr: 0x100015F60, symSize: 0x130 }
  - { offsetInCU: 0x32AA4, offset: 0x32AA4, size: 0x8, addend: 0x0, symName: __ZN14SyntaxAnalyzer3IDSE5Value, symObjAddr: 0x121B0, symBinAddr: 0x100016090, symSize: 0x110 }
  - { offsetInCU: 0x32ADA, offset: 0x32ADA, size: 0x8, addend: 0x0, symName: __ZN14SyntaxAnalyzer2idE5Value, symObjAddr: 0x122C0, symBinAddr: 0x1000161A0, symSize: 0x1C0 }
  - { offsetInCU: 0x32B35, offset: 0x32B35, size: 0x8, addend: 0x0, symName: __ZN14SyntaxAnalyzer9StatementEv, symObjAddr: 0x12480, symBinAddr: 0x100016360, symSize: 0x1730 }
  - { offsetInCU: 0x32BDA, offset: 0x32BDA, size: 0x8, addend: 0x0, symName: __ZN14SyntaxAnalyzer1SEv, symObjAddr: 0x13BB0, symBinAddr: 0x100017A90, symSize: 0x130 }
  - { offsetInCU: 0x32C0F, offset: 0x32C0F, size: 0x8, addend: 0x0, symName: __ZN14SyntaxAnalyzer9ConditionEv, symObjAddr: 0x13CE0, symBinAddr: 0x100017BC0, symSize: 0x50 }
  - { offsetInCU: 0x32C35, offset: 0x32C35, size: 0x8, addend: 0x0, symName: __ZN14SyntaxAnalyzer3_ifEv, symObjAddr: 0x13D30, symBinAddr: 0x100017C10, symSize: 0x3A0 }
  - { offsetInCU: 0x32C6A, offset: 0x32C6A, size: 0x8, addend: 0x0, symName: __ZN14SyntaxAnalyzer1rEv, symObjAddr: 0x140D0, symBinAddr: 0x100017FB0, symSize: 0x240 }
  - { offsetInCU: 0x32C9F, offset: 0x32C9F, size: 0x8, addend: 0x0, symName: __ZN14SyntaxAnalyzer10ExpressionEv, symObjAddr: 0x14310, symBinAddr: 0x1000181F0, symSize: 0x50 }
  - { offsetInCU: 0x32CC5, offset: 0x32CC5, size: 0x8, addend: 0x0, symName: __ZN19Symbol_and_Assembly4SOUTEv, symObjAddr: 0x14360, symBinAddr: 0x100018240, symSize: 0x380 }
  - { offsetInCU: 0x32CFB, offset: 0x32CFB, size: 0x8, addend: 0x0, symName: __ZN19Symbol_and_Assembly10getAddressENSt3__112basic_stringIcNS0_11char_traitsIcEENS0_9allocatorIcEEEE, symObjAddr: 0x146E0, symBinAddr: 0x1000185C0, symSize: 0x30 }
  - { offsetInCU: 0x32D30, offset: 0x32D30, size: 0x8, addend: 0x0, symName: __ZN19Symbol_and_Assembly3SINENSt3__112basic_stringIcNS0_11char_traitsIcEENS0_9allocatorIcEEEE, symObjAddr: 0x14710, symBinAddr: 0x1000185F0, symSize: 0x550 }
  - { offsetInCU: 0x32DE7, offset: 0x32DE7, size: 0x8, addend: 0x0, symName: __ZN19Symbol_and_Assembly18getInstructionAddrEv, symObjAddr: 0x14C60, symBinAddr: 0x100018B40, symSize: 0x20 }
  - { offsetInCU: 0x32E0D, offset: 0x32E0D, size: 0x8, addend: 0x0, symName: __ZN19Symbol_and_Assembly20generate_instructionENSt3__112basic_stringIcNS0_11char_traitsIcEENS0_9allocatorIcEEEENS0_8optionalIiEE, symObjAddr: 0x14C80, symBinAddr: 0x100018B60, symSize: 0x50 }
  - { offsetInCU: 0x32E50, offset: 0x32E50, size: 0x8, addend: 0x0, symName: __ZNSt3__18optionalIiEC1B7v160006ENS_9nullopt_tE, symObjAddr: 0x14CD0, symBinAddr: 0x100018BB0, symSize: 0x20 }
  - { offsetInCU: 0x32E86, offset: 0x32E86, size: 0x8, addend: 0x0, symName: __ZN19Symbol_and_Assembly3JMPEi, symObjAddr: 0x14CF0, symBinAddr: 0x100018BD0, symSize: 0x80 }
  - { offsetInCU: 0x32EBB, offset: 0x32EBB, size: 0x8, addend: 0x0, symName: __ZN19Symbol_and_Assembly10back_patchEi, symObjAddr: 0x14D70, symBinAddr: 0x100018C50, symSize: 0xB0 }
  - { offsetInCU: 0x32F0B, offset: 0x32F0B, size: 0x8, addend: 0x0, symName: __ZN19Symbol_and_Assembly4POPMEiNSt3__112basic_stringIcNS0_11char_traitsIcEENS0_9allocatorIcEEEE, symObjAddr: 0x14E20, symBinAddr: 0x100018D00, symSize: 0x1A0 }
  - { offsetInCU: 0x32F60, offset: 0x32F60, size: 0x8, addend: 0x0, symName: __ZN14SyntaxAnalyzer5RelopEv, symObjAddr: 0x14FC0, symBinAddr: 0x100018EA0, symSize: 0x760 }
  - { offsetInCU: 0x32F95, offset: 0x32F95, size: 0x8, addend: 0x0, symName: __ZN19Symbol_and_Assembly3GRTEv, symObjAddr: 0x15720, symBinAddr: 0x100019600, symSize: 0x290 }
  - { offsetInCU: 0x33010, offset: 0x33010, size: 0x8, addend: 0x0, symName: __ZN19Symbol_and_Assembly13push_JMPstackEi, symObjAddr: 0x159B0, symBinAddr: 0x100019890, symSize: 0x30 }
  - { offsetInCU: 0x33045, offset: 0x33045, size: 0x8, addend: 0x0, symName: __ZN19Symbol_and_Assembly4JMP0Ev, symObjAddr: 0x159E0, symBinAddr: 0x1000198C0, symSize: 0x120 }
  - { offsetInCU: 0x3307A, offset: 0x3307A, size: 0x8, addend: 0x0, symName: __ZN19Symbol_and_Assembly3LESEv, symObjAddr: 0x15B00, symBinAddr: 0x1000199E0, symSize: 0x280 }
  - { offsetInCU: 0x330F5, offset: 0x330F5, size: 0x8, addend: 0x0, symName: __ZN19Symbol_and_Assembly3EQUEv, symObjAddr: 0x15D80, symBinAddr: 0x100019C60, symSize: 0x280 }
  - { offsetInCU: 0x33170, offset: 0x33170, size: 0x8, addend: 0x0, symName: __ZN19Symbol_and_Assembly3NEQEv, symObjAddr: 0x16000, symBinAddr: 0x100019EE0, symSize: 0x280 }
  - { offsetInCU: 0x331EB, offset: 0x331EB, size: 0x8, addend: 0x0, symName: __ZN19Symbol_and_Assembly3GEQEv, symObjAddr: 0x16280, symBinAddr: 0x10001A160, symSize: 0x280 }
  - { offsetInCU: 0x33266, offset: 0x33266, size: 0x8, addend: 0x0, symName: __ZN19Symbol_and_Assembly3LEQEv, symObjAddr: 0x16500, symBinAddr: 0x10001A3E0, symSize: 0x280 }
  - { offsetInCU: 0x332E1, offset: 0x332E1, size: 0x8, addend: 0x0, symName: __ZNKSt3__15stackI5ValueNS_5dequeIS1_NS_9allocatorIS1_EEEEE4sizeB7v160006Ev, symObjAddr: 0x16780, symBinAddr: 0x10001A660, symSize: 0x20 }
  - { offsetInCU: 0x33307, offset: 0x33307, size: 0x8, addend: 0x0, symName: __ZNSt3__15stackI5ValueNS_5dequeIS1_NS_9allocatorIS1_EEEEE3topB7v160006Ev, symObjAddr: 0x167A0, symBinAddr: 0x10001A680, symSize: 0x20 }
  - { offsetInCU: 0x3332D, offset: 0x3332D, size: 0x8, addend: 0x0, symName: __ZNSt3__15stackI5ValueNS_5dequeIS1_NS_9allocatorIS1_EEEEE3popB7v160006Ev, symObjAddr: 0x167C0, symBinAddr: 0x10001A6A0, symSize: 0x20 }
  - { offsetInCU: 0x33353, offset: 0x33353, size: 0x8, addend: 0x0, symName: __ZN19Symbol_and_Assembly8getValueERK5Value, symObjAddr: 0x167E0, symBinAddr: 0x10001A6C0, symSize: 0x2E0 }
  - { offsetInCU: 0x333A3, offset: 0x333A3, size: 0x8, addend: 0x0, symName: __ZNSt3__15stackI5ValueNS_5dequeIS1_NS_9allocatorIS1_EEEEE4pushB7v160006EOS1_, symObjAddr: 0x16AC0, symBinAddr: 0x10001A9A0, symSize: 0x30 }
  - { offsetInCU: 0x333D7, offset: 0x333D7, size: 0x8, addend: 0x0, symName: __ZNSt3__15dequeI5ValueNS_9allocatorIS1_EEE4backEv, symObjAddr: 0x16AF0, symBinAddr: 0x10001A9D0, symSize: 0x70 }
  - { offsetInCU: 0x3340E, offset: 0x3340E, size: 0x8, addend: 0x0, symName: __ZNSt3__15dequeI5ValueNS_9allocatorIS1_EEE8pop_backEv, symObjAddr: 0x16B60, symBinAddr: 0x10001AA40, symSize: 0xB0 }
  - { offsetInCU: 0x33454, offset: 0x33454, size: 0x8, addend: 0x0, symName: __ZNSt3__15dequeI5ValueNS_9allocatorIS1_EEE25__maybe_remove_back_spareB7v160006Eb, symObjAddr: 0x16C20, symBinAddr: 0x10001AB00, symSize: 0xA0 }
  - { offsetInCU: 0x33489, offset: 0x33489, size: 0x8, addend: 0x0, symName: __ZNKSt3__15dequeI5ValueNS_9allocatorIS1_EEE19__back_spare_blocksB7v160006Ev, symObjAddr: 0x16CC0, symBinAddr: 0x10001ABA0, symSize: 0x30 }
  - { offsetInCU: 0x334AF, offset: 0x334AF, size: 0x8, addend: 0x0, symName: __ZNSt3__114__split_bufferIP5ValueNS_9allocatorIS2_EEE4backB7v160006Ev, symObjAddr: 0x16CF0, symBinAddr: 0x10001ABD0, symSize: 0x20 }
  - { offsetInCU: 0x334D5, offset: 0x334D5, size: 0x8, addend: 0x0, symName: __ZNSt3__114__split_bufferIP5ValueNS_9allocatorIS2_EEE8pop_backB7v160006Ev, symObjAddr: 0x16D10, symBinAddr: 0x10001ABF0, symSize: 0x30 }
  - { offsetInCU: 0x334FB, offset: 0x334FB, size: 0x8, addend: 0x0, symName: __ZNKSt3__15dequeI5ValueNS_9allocatorIS1_EEE12__back_spareB7v160006Ev, symObjAddr: 0x16D40, symBinAddr: 0x10001AC20, symSize: 0x50 }
  - { offsetInCU: 0x33521, offset: 0x33521, size: 0x8, addend: 0x0, symName: __ZNKSt3__15dequeI5ValueNS_9allocatorIS1_EEE10__capacityB7v160006Ev, symObjAddr: 0x16D90, symBinAddr: 0x10001AC70, symSize: 0x50 }
  - { offsetInCU: 0x33547, offset: 0x33547, size: 0x8, addend: 0x0, symName: __ZNKSt3__123__optional_storage_baseIiLb0EE9has_valueB7v160006Ev, symObjAddr: 0x16DE0, symBinAddr: 0x10001ACC0, symSize: 0x20 }
  - { offsetInCU: 0x3356D, offset: 0x3356D, size: 0x8, addend: 0x0, symName: __ZNKRSt3__18optionalIiE5valueB7v160006Ev, symObjAddr: 0x16E00, symBinAddr: 0x10001ACE0, symSize: 0x40 }
  - { offsetInCU: 0x33593, offset: 0x33593, size: 0x8, addend: 0x0, symName: __ZNKSt3__123__optional_storage_baseIbLb0EE9has_valueB7v160006Ev, symObjAddr: 0x16E40, symBinAddr: 0x10001AD20, symSize: 0x20 }
  - { offsetInCU: 0x335B9, offset: 0x335B9, size: 0x8, addend: 0x0, symName: __ZNKRSt3__18optionalIbE5valueB7v160006Ev, symObjAddr: 0x16E60, symBinAddr: 0x10001AD40, symSize: 0x40 }
  - { offsetInCU: 0x335DF, offset: 0x335DF, size: 0x8, addend: 0x0, symName: __ZNSt3__113unordered_mapINS_12basic_stringIcNS_11char_traitsIcEENS_9allocatorIcEEEEN19Symbol_and_Assembly10SymbolInfoENS_4hashIS6_EENS_8equal_toIS6_EENS4_INS_4pairIKS6_S8_EEEEE4findB7v160006ERSE_, symObjAddr: 0x16EA0, symBinAddr: 0x10001AD80, symSize: 0x40 }
  - { offsetInCU: 0x33614, offset: 0x33614, size: 0x8, addend: 0x0, symName: __ZNSt3__113unordered_mapINS_12basic_stringIcNS_11char_traitsIcEENS_9allocatorIcEEEEN19Symbol_and_Assembly10SymbolInfoENS_4hashIS6_EENS_8equal_toIS6_EENS4_INS_4pairIKS6_S8_EEEEE3endB7v160006Ev, symObjAddr: 0x16F10, symBinAddr: 0x10001ADF0, symSize: 0x30 }
  - { offsetInCU: 0x3363A, offset: 0x3363A, size: 0x8, addend: 0x0, symName: __ZNKSt3__119__hash_map_iteratorINS_15__hash_iteratorIPNS_11__hash_nodeINS_17__hash_value_typeINS_12basic_stringIcNS_11char_traitsIcEENS_9allocatorIcEEEEN19Symbol_and_Assembly10SymbolInfoEEEPvEEEEEptB7v160006Ev, symObjAddr: 0x16F40, symBinAddr: 0x10001AE20, symSize: 0x30 }
  - { offsetInCU: 0x33660, offset: 0x33660, size: 0x8, addend: 0x0, symName: __ZNKRSt3__123__optional_storage_baseIiLb0EE5__getB7v160006Ev, symObjAddr: 0x16FB0, symBinAddr: 0x10001AE90, symSize: 0x10 }
  - { offsetInCU: 0x33697, offset: 0x33697, size: 0x8, addend: 0x0, symName: __ZNSt19bad_optional_accessC1Ev, symObjAddr: 0x16FC0, symBinAddr: 0x10001AEA0, symSize: 0x20 }
  - { offsetInCU: 0x336C3, offset: 0x336C3, size: 0x8, addend: 0x0, symName: __ZNSt19bad_optional_accessC2Ev, symObjAddr: 0x16FE0, symBinAddr: 0x10001AEC0, symSize: 0x40 }
  - { offsetInCU: 0x336EF, offset: 0x336EF, size: 0x8, addend: 0x0, symName: __ZNSt9exceptionC2B7v160006Ev, symObjAddr: 0x17020, symBinAddr: 0x10001AF00, symSize: 0x20 }
  - { offsetInCU: 0x33719, offset: 0x33719, size: 0x8, addend: 0x0, symName: __ZNKRSt3__123__optional_storage_baseIbLb0EE5__getB7v160006Ev, symObjAddr: 0x17040, symBinAddr: 0x10001AF20, symSize: 0x10 }
  - { offsetInCU: 0x3373F, offset: 0x3373F, size: 0x8, addend: 0x0, symName: __ZNSt3__112__hash_tableINS_17__hash_value_typeINS_12basic_stringIcNS_11char_traitsIcEENS_9allocatorIcEEEEN19Symbol_and_Assembly10SymbolInfoEEENS_22__unordered_map_hasherIS7_SA_NS_4hashIS7_EENS_8equal_toIS7_EELb1EEENS_21__unordered_map_equalIS7_SA_SF_SD_Lb1EEENS5_ISA_EEE4findIS7_EENS_15__hash_iteratorIPNS_11__hash_nodeISA_PvEEEERKT_, symObjAddr: 0x17050, symBinAddr: 0x10001AF30, symSize: 0x180 }
  - { offsetInCU: 0x337C9, offset: 0x337C9, size: 0x8, addend: 0x0, symName: __ZNSt3__119__hash_map_iteratorINS_15__hash_iteratorIPNS_11__hash_nodeINS_17__hash_value_typeINS_12basic_stringIcNS_11char_traitsIcEENS_9allocatorIcEEEEN19Symbol_and_Assembly10SymbolInfoEEEPvEEEEEC1B7v160006ESG_, symObjAddr: 0x171D0, symBinAddr: 0x10001B0B0, symSize: 0x30 }
  - { offsetInCU: 0x33802, offset: 0x33802, size: 0x8, addend: 0x0, symName: __ZNSt3__112__hash_tableINS_17__hash_value_typeINS_12basic_stringIcNS_11char_traitsIcEENS_9allocatorIcEEEEN19Symbol_and_Assembly10SymbolInfoEEENS_22__unordered_map_hasherIS7_SA_NS_4hashIS7_EENS_8equal_toIS7_EELb1EEENS_21__unordered_map_equalIS7_SA_SF_SD_Lb1EEENS5_ISA_EEE3endEv, symObjAddr: 0x17200, symBinAddr: 0x10001B0E0, symSize: 0x30 }
  - { offsetInCU: 0x3382A, offset: 0x3382A, size: 0x8, addend: 0x0, symName: __ZNSt3__119__hash_map_iteratorINS_15__hash_iteratorIPNS_11__hash_nodeINS_17__hash_value_typeINS_12basic_stringIcNS_11char_traitsIcEENS_9allocatorIcEEEEN19Symbol_and_Assembly10SymbolInfoEEEPvEEEEEC2B7v160006ESG_, symObjAddr: 0x17230, symBinAddr: 0x10001B110, symSize: 0x20 }
  - { offsetInCU: 0x33863, offset: 0x33863, size: 0x8, addend: 0x0, symName: __ZNSt3__114pointer_traitsIPNS_4pairIKNS_12basic_stringIcNS_11char_traitsIcEENS_9allocatorIcEEEEN19Symbol_and_Assembly10SymbolInfoEEEE10pointer_toB7v160006ERSB_, symObjAddr: 0x17280, symBinAddr: 0x10001B160, symSize: 0x10 }
  - { offsetInCU: 0x33886, offset: 0x33886, size: 0x8, addend: 0x0, symName: __ZNSt3__15dequeI5ValueNS_9allocatorIS1_EEE9push_backEOS1_, symObjAddr: 0x17290, symBinAddr: 0x10001B170, symSize: 0x90 }
  - { offsetInCU: 0x338CC, offset: 0x338CC, size: 0x8, addend: 0x0, symName: __ZNSt3__15dequeI5ValueNS_9allocatorIS1_EEE19__add_back_capacityEv, symObjAddr: 0x17320, symBinAddr: 0x10001B200, symSize: 0x380 }
  - { offsetInCU: 0x33987, offset: 0x33987, size: 0x8, addend: 0x0, symName: __ZNSt3__116allocator_traitsINS_9allocatorI5ValueEEE9constructB7v160006IS2_JS2_EvEEvRS3_PT_DpOT0_, symObjAddr: 0x176A0, symBinAddr: 0x10001B580, symSize: 0x30 }
  - { offsetInCU: 0x339DE, offset: 0x339DE, size: 0x8, addend: 0x0, symName: __ZNKSt3__15dequeI5ValueNS_9allocatorIS1_EEE13__front_spareB7v160006Ev, symObjAddr: 0x176D0, symBinAddr: 0x10001B5B0, symSize: 0x20 }
  - { offsetInCU: 0x33A04, offset: 0x33A04, size: 0x8, addend: 0x0, symName: __ZNSt3__114__split_bufferIP5ValueNS_9allocatorIS2_EEE9push_backB7v160006ERKS2_, symObjAddr: 0x176F0, symBinAddr: 0x10001B5D0, symSize: 0x290 }
  - { offsetInCU: 0x33A7C, offset: 0x33A7C, size: 0x8, addend: 0x0, symName: __ZNKSt3__114__split_bufferIP5ValueNS_9allocatorIS2_EEE12__back_spareB7v160006Ev, symObjAddr: 0x17980, symBinAddr: 0x10001B860, symSize: 0x40 }
  - { offsetInCU: 0x33AA2, offset: 0x33AA2, size: 0x8, addend: 0x0, symName: __ZNSt3__114__split_bufferIP5ValueNS_9allocatorIS2_EEE9push_backEOS2_, symObjAddr: 0x179C0, symBinAddr: 0x10001B8A0, symSize: 0x290 }
  - { offsetInCU: 0x33B1A, offset: 0x33B1A, size: 0x8, addend: 0x0, symName: __ZNSt3__116allocator_traitsINS_9allocatorI5ValueEEE8allocateB7v160006ERS3_m, symObjAddr: 0x17C50, symBinAddr: 0x10001BB30, symSize: 0x30 }
  - { offsetInCU: 0x33B4D, offset: 0x33B4D, size: 0x8, addend: 0x0, symName: __ZNSt3__114__split_bufferIP5ValueNS_9allocatorIS2_EEE10push_frontEOS2_, symObjAddr: 0x17C80, symBinAddr: 0x10001BB60, symSize: 0x270 }
  - { offsetInCU: 0x33BC5, offset: 0x33BC5, size: 0x8, addend: 0x0, symName: __ZNSt3__114__split_bufferIP5ValueRNS_9allocatorIS2_EEEC1EmmS5_, symObjAddr: 0x17EF0, symBinAddr: 0x10001BDD0, symSize: 0x40 }
  - { offsetInCU: 0x33C21, offset: 0x33C21, size: 0x8, addend: 0x0, symName: __ZNSt3__122__allocator_destructorINS_9allocatorI5ValueEEEC1B7v160006ERS3_m, symObjAddr: 0x17F30, symBinAddr: 0x10001BE10, symSize: 0x30 }
  - { offsetInCU: 0x33CF7, offset: 0x33CF7, size: 0x8, addend: 0x0, symName: __ZNSt3__110unique_ptrIP5ValueNS_22__allocator_destructorINS_9allocatorIS1_EEEEEC1B7v160006ILb1EvEES2_NS_16__dependent_typeINS_27__unique_ptr_deleter_sfinaeIS6_EEXT_EE20__good_rval_ref_typeE, symObjAddr: 0x17F60, symBinAddr: 0x10001BE40, symSize: 0x30 }
  - { offsetInCU: 0x33D48, offset: 0x33D48, size: 0x8, addend: 0x0, symName: __ZNSt3__114__split_bufferIP5ValueRNS_9allocatorIS2_EEE9push_backEOS2_, symObjAddr: 0x17F90, symBinAddr: 0x10001BE70, symSize: 0x290 }
  - { offsetInCU: 0x33DC0, offset: 0x33DC0, size: 0x8, addend: 0x0, symName: __ZNKSt3__110unique_ptrIP5ValueNS_22__allocator_destructorINS_9allocatorIS1_EEEEE3getB7v160006Ev, symObjAddr: 0x18220, symBinAddr: 0x10001C100, symSize: 0x20 }
  - { offsetInCU: 0x33DE6, offset: 0x33DE6, size: 0x8, addend: 0x0, symName: __ZNSt3__110unique_ptrIP5ValueNS_22__allocator_destructorINS_9allocatorIS1_EEEEE7releaseB7v160006Ev, symObjAddr: 0x18240, symBinAddr: 0x10001C120, symSize: 0x40 }
  - { offsetInCU: 0x33E1B, offset: 0x33E1B, size: 0x8, addend: 0x0, symName: __ZNSt3__114__split_bufferIP5ValueRNS_9allocatorIS2_EEE10push_frontERKS2_, symObjAddr: 0x18280, symBinAddr: 0x10001C160, symSize: 0x270 }
  - { offsetInCU: 0x33E93, offset: 0x33E93, size: 0x8, addend: 0x0, symName: __ZNSt3__114__split_bufferIP5ValueNS_9allocatorIS2_EEE9__end_capB7v160006Ev, symObjAddr: 0x18530, symBinAddr: 0x10001C410, symSize: 0x20 }
  - { offsetInCU: 0x33EB9, offset: 0x33EB9, size: 0x8, addend: 0x0, symName: __ZNSt3__114__split_bufferIP5ValueRNS_9allocatorIS2_EEE9__end_capB7v160006Ev, symObjAddr: 0x18550, symBinAddr: 0x10001C430, symSize: 0x20 }
  - { offsetInCU: 0x33EDF, offset: 0x33EDF, size: 0x8, addend: 0x0, symName: __ZNSt3__110unique_ptrIP5ValueNS_22__allocator_destructorINS_9allocatorIS1_EEEEED1B7v160006Ev, symObjAddr: 0x18570, symBinAddr: 0x10001C450, symSize: 0x20 }
  - { offsetInCU: 0x33F09, offset: 0x33F09, size: 0x8, addend: 0x0, symName: __ZNSt3__114__split_bufferIP5ValueRNS_9allocatorIS2_EEED1Ev, symObjAddr: 0x18590, symBinAddr: 0x10001C470, symSize: 0x20 }
  - { offsetInCU: 0x33F35, offset: 0x33F35, size: 0x8, addend: 0x0, symName: __ZNSt3__114__split_bufferIP5ValueRNS_9allocatorIS2_EEE18__construct_at_endINS_13move_iteratorIPS2_EEEENS_9enable_ifIXsr27__is_cpp17_forward_iteratorIT_EE5valueEvE4typeESC_SC_, symObjAddr: 0x185F0, symBinAddr: 0x10001C4D0, symSize: 0x100 }
  - { offsetInCU: 0x33F91, offset: 0x33F91, size: 0x8, addend: 0x0, symName: __ZNSt3__113move_iteratorIPP5ValueEC1B7v160006ES3_, symObjAddr: 0x186F0, symBinAddr: 0x10001C5D0, symSize: 0x30 }
  - { offsetInCU: 0x33FC9, offset: 0x33FC9, size: 0x8, addend: 0x0, symName: __ZNSt3__116allocator_traitsINS_9allocatorIP5ValueEEE9constructB7v160006IS3_JRKS3_EvEEvRS4_PT_DpOT0_, symObjAddr: 0x18720, symBinAddr: 0x10001C600, symSize: 0x30 }
  - { offsetInCU: 0x34048, offset: 0x34048, size: 0x8, addend: 0x0, symName: __ZNKSt3__114__move_trivialclB7v160006IP5ValueS3_Li0EEENS_4pairIPT_PT0_EES6_S6_S8_, symObjAddr: 0x188D0, symBinAddr: 0x10001C7B0, symSize: 0x40 }
  - { offsetInCU: 0x340B6, offset: 0x340B6, size: 0x8, addend: 0x0, symName: __ZNSt3__14pairIPP5ValueS3_EC1B7v160006IRS3_S3_LPv0EEEOT_OT0_, symObjAddr: 0x18A70, symBinAddr: 0x10001C950, symSize: 0x30 }
  - { offsetInCU: 0x34114, offset: 0x34114, size: 0x8, addend: 0x0, symName: __ZNSt3__14pairIPP5ValueS3_EC2B7v160006IRS3_S3_LPv0EEEOT_OT0_, symObjAddr: 0x18AA0, symBinAddr: 0x10001C980, symSize: 0x30 }
  - { offsetInCU: 0x34172, offset: 0x34172, size: 0x8, addend: 0x0, symName: __ZNSt3__118__unwrap_iter_implIPP5ValueLb1EE8__unwrapB7v160006ES3_, symObjAddr: 0x18AD0, symBinAddr: 0x10001C9B0, symSize: 0x20 }
  - { offsetInCU: 0x34195, offset: 0x34195, size: 0x8, addend: 0x0, symName: __ZNSt3__14pairIPP5ValueS3_EC1B7v160006IS3_S3_LPv0EEEOT_OT0_, symObjAddr: 0x18AF0, symBinAddr: 0x10001C9D0, symSize: 0x30 }
  - { offsetInCU: 0x341F3, offset: 0x341F3, size: 0x8, addend: 0x0, symName: __ZNSt3__14pairIPP5ValueS3_EC2B7v160006IS3_S3_LPv0EEEOT_OT0_, symObjAddr: 0x18B20, symBinAddr: 0x10001CA00, symSize: 0x30 }
  - { offsetInCU: 0x34251, offset: 0x34251, size: 0x8, addend: 0x0, symName: __ZNSt3__118__unwrap_iter_implIPP5ValueLb1EE8__rewrapB7v160006ES3_S3_, symObjAddr: 0x18B50, symBinAddr: 0x10001CA30, symSize: 0x50 }
  - { offsetInCU: 0x3428E, offset: 0x3428E, size: 0x8, addend: 0x0, symName: __ZNSt3__114__split_bufferIP5ValueRNS_9allocatorIS2_EEE21_ConstructTransactionC1B7v160006EPPS2_m, symObjAddr: 0x18BE0, symBinAddr: 0x10001CAC0, symSize: 0x30 }
  - { offsetInCU: 0x342D4, offset: 0x342D4, size: 0x8, addend: 0x0, symName: __ZNSt3__116allocator_traitsINS_9allocatorIP5ValueEEE9constructB7v160006IS3_JS3_EvEEvRS4_PT_DpOT0_, symObjAddr: 0x18C10, symBinAddr: 0x10001CAF0, symSize: 0x30 }
  - { offsetInCU: 0x3432B, offset: 0x3432B, size: 0x8, addend: 0x0, symName: __ZNSt3__114__split_bufferIP5ValueRNS_9allocatorIS2_EEE7__allocB7v160006Ev, symObjAddr: 0x18C40, symBinAddr: 0x10001CB20, symSize: 0x20 }
  - { offsetInCU: 0x34351, offset: 0x34351, size: 0x8, addend: 0x0, symName: __ZNKSt3__113move_iteratorIPP5ValueEdeB7v160006Ev, symObjAddr: 0x18C60, symBinAddr: 0x10001CB40, symSize: 0x20 }
  - { offsetInCU: 0x34377, offset: 0x34377, size: 0x8, addend: 0x0, symName: __ZNSt3__113move_iteratorIPP5ValueEppB7v160006Ev, symObjAddr: 0x18C80, symBinAddr: 0x10001CB60, symSize: 0x20 }
  - { offsetInCU: 0x3439D, offset: 0x3439D, size: 0x8, addend: 0x0, symName: __ZNSt3__114__split_bufferIP5ValueRNS_9allocatorIS2_EEE21_ConstructTransactionD1B7v160006Ev, symObjAddr: 0x18CA0, symBinAddr: 0x10001CB80, symSize: 0x20 }
  - { offsetInCU: 0x343C7, offset: 0x343C7, size: 0x8, addend: 0x0, symName: __ZNKSt3__113move_iteratorIPP5ValueE4baseB7v160006Ev, symObjAddr: 0x18D30, symBinAddr: 0x10001CC10, symSize: 0x20 }
  - { offsetInCU: 0x343ED, offset: 0x343ED, size: 0x8, addend: 0x0, symName: __ZNSt3__114__split_bufferIP5ValueRNS_9allocatorIS2_EEE21_ConstructTransactionC2B7v160006EPPS2_m, symObjAddr: 0x18D50, symBinAddr: 0x10001CC30, symSize: 0x40 }
  - { offsetInCU: 0x34433, offset: 0x34433, size: 0x8, addend: 0x0, symName: __ZNSt3__19allocatorIP5ValueE9constructB7v160006IS2_JS2_EEEvPT_DpOT0_, symObjAddr: 0x18D90, symBinAddr: 0x10001CC70, symSize: 0x20 }
  - { offsetInCU: 0x34489, offset: 0x34489, size: 0x8, addend: 0x0, symName: __ZNSt3__117__compressed_pairIPP5ValueRNS_9allocatorIS2_EEE6secondB7v160006Ev, symObjAddr: 0x18DB0, symBinAddr: 0x10001CC90, symSize: 0x20 }
  - { offsetInCU: 0x344AF, offset: 0x344AF, size: 0x8, addend: 0x0, symName: __ZNSt3__122__compressed_pair_elemIRNS_9allocatorIP5ValueEELi1ELb0EE5__getB7v160006Ev, symObjAddr: 0x18DD0, symBinAddr: 0x10001CCB0, symSize: 0x20 }
  - { offsetInCU: 0x344D5, offset: 0x344D5, size: 0x8, addend: 0x0, symName: __ZNSt3__114__split_bufferIP5ValueRNS_9allocatorIS2_EEE21_ConstructTransactionD2B7v160006Ev, symObjAddr: 0x18DF0, symBinAddr: 0x10001CCD0, symSize: 0x20 }
  - { offsetInCU: 0x344FF, offset: 0x344FF, size: 0x8, addend: 0x0, symName: __ZNSt3__113move_iteratorIPP5ValueEC2B7v160006ES3_, symObjAddr: 0x18E10, symBinAddr: 0x10001CCF0, symSize: 0x20 }
  - { offsetInCU: 0x34537, offset: 0x34537, size: 0x8, addend: 0x0, symName: __ZNSt3__19allocatorIP5ValueE9constructB7v160006IS2_JRKS2_EEEvPT_DpOT0_, symObjAddr: 0x18E30, symBinAddr: 0x10001CD10, symSize: 0x20 }
  - { offsetInCU: 0x3458D, offset: 0x3458D, size: 0x8, addend: 0x0, symName: __ZNSt3__19allocatorI5ValueE8allocateB7v160006Em, symObjAddr: 0x18E50, symBinAddr: 0x10001CD30, symSize: 0x50 }
  - { offsetInCU: 0x345CC, offset: 0x345CC, size: 0x8, addend: 0x0, symName: __ZNSt3__116allocator_traitsINS_9allocatorI5ValueEEE8max_sizeB7v160006IS3_vEEmRKS3_, symObjAddr: 0x18EA0, symBinAddr: 0x10001CD80, symSize: 0x20 }
  - { offsetInCU: 0x345FA, offset: 0x345FA, size: 0x8, addend: 0x0, symName: __ZNKSt3__19allocatorI5ValueE8max_sizeB7v160006Ev, symObjAddr: 0x18EC0, symBinAddr: 0x10001CDA0, symSize: 0x20 }
  - { offsetInCU: 0x3462B, offset: 0x3462B, size: 0x8, addend: 0x0, symName: __ZNKSt3__123__move_backward_trivialclB7v160006IP5ValueS3_Li0EEENS_4pairIPT_PT0_EES6_S6_S8_, symObjAddr: 0x19050, symBinAddr: 0x10001CF30, symSize: 0x40 }
  - { offsetInCU: 0x34693, offset: 0x34693, size: 0x8, addend: 0x0, symName: __ZNSt3__14pairIPP5ValueS3_EC1B7v160006IRS3_S6_LPv0EEEOT_OT0_, symObjAddr: 0x19140, symBinAddr: 0x10001D020, symSize: 0x30 }
  - { offsetInCU: 0x346F1, offset: 0x346F1, size: 0x8, addend: 0x0, symName: __ZNSt3__14pairIPP5ValueS3_EC2B7v160006IRS3_S6_LPv0EEEOT_OT0_, symObjAddr: 0x19170, symBinAddr: 0x10001D050, symSize: 0x30 }
  - { offsetInCU: 0x3474F, offset: 0x3474F, size: 0x8, addend: 0x0, symName: __ZNSt3__114__split_bufferIP5ValueRNS_9allocatorIS2_EEEC2EmmS5_, symObjAddr: 0x191A0, symBinAddr: 0x10001D080, symSize: 0xD0 }
  - { offsetInCU: 0x347C2, offset: 0x347C2, size: 0x8, addend: 0x0, symName: __ZNSt3__117__compressed_pairIPP5ValueRNS_9allocatorIS2_EEEC1B7v160006IDnS6_EEOT_OT0_, symObjAddr: 0x19270, symBinAddr: 0x10001D150, symSize: 0x30 }
  - { offsetInCU: 0x3481A, offset: 0x3481A, size: 0x8, addend: 0x0, symName: __ZNSt3__117__compressed_pairIPP5ValueRNS_9allocatorIS2_EEEC2B7v160006IDnS6_EEOT_OT0_, symObjAddr: 0x192E0, symBinAddr: 0x10001D1C0, symSize: 0x40 }
  - { offsetInCU: 0x34872, offset: 0x34872, size: 0x8, addend: 0x0, symName: __ZNSt3__122__compressed_pair_elemIRNS_9allocatorIP5ValueEELi1ELb0EEC2B7v160006IS5_vEEOT_, symObjAddr: 0x19320, symBinAddr: 0x10001D200, symSize: 0x20 }
  - { offsetInCU: 0x348B4, offset: 0x348B4, size: 0x8, addend: 0x0, symName: __ZNSt3__19allocatorIP5ValueE8allocateB7v160006Em, symObjAddr: 0x19340, symBinAddr: 0x10001D220, symSize: 0x50 }
  - { offsetInCU: 0x348F3, offset: 0x348F3, size: 0x8, addend: 0x0, symName: __ZNSt3__116allocator_traitsINS_9allocatorIP5ValueEEE8max_sizeB7v160006IS4_vEEmRKS4_, symObjAddr: 0x19390, symBinAddr: 0x10001D270, symSize: 0x20 }
  - { offsetInCU: 0x34921, offset: 0x34921, size: 0x8, addend: 0x0, symName: __ZNKSt3__19allocatorIP5ValueE8max_sizeB7v160006Ev, symObjAddr: 0x193B0, symBinAddr: 0x10001D290, symSize: 0x20 }
  - { offsetInCU: 0x34947, offset: 0x34947, size: 0x8, addend: 0x0, symName: __ZNSt3__122__allocator_destructorINS_9allocatorI5ValueEEEC2B7v160006ERS3_m, symObjAddr: 0x193D0, symBinAddr: 0x10001D2B0, symSize: 0x30 }
  - { offsetInCU: 0x3498D, offset: 0x3498D, size: 0x8, addend: 0x0, symName: __ZNSt3__110unique_ptrIP5ValueNS_22__allocator_destructorINS_9allocatorIS1_EEEEEC2B7v160006ILb1EvEES2_NS_16__dependent_typeINS_27__unique_ptr_deleter_sfinaeIS6_EEXT_EE20__good_rval_ref_typeE, symObjAddr: 0x19400, symBinAddr: 0x10001D2E0, symSize: 0x40 }
  - { offsetInCU: 0x349DE, offset: 0x349DE, size: 0x8, addend: 0x0, symName: __ZNSt3__117__compressed_pairIP5ValueNS_22__allocator_destructorINS_9allocatorIS1_EEEEEC1B7v160006IRS2_S6_EEOT_OT0_, symObjAddr: 0x19440, symBinAddr: 0x10001D320, symSize: 0x30 }
  - { offsetInCU: 0x34A36, offset: 0x34A36, size: 0x8, addend: 0x0, symName: __ZNSt3__117__compressed_pairIP5ValueNS_22__allocator_destructorINS_9allocatorIS1_EEEEEC2B7v160006IRS2_S6_EEOT_OT0_, symObjAddr: 0x19470, symBinAddr: 0x10001D350, symSize: 0x40 }
  - { offsetInCU: 0x34A8E, offset: 0x34A8E, size: 0x8, addend: 0x0, symName: __ZNSt3__122__compressed_pair_elemIP5ValueLi0ELb0EEC2B7v160006IRS2_vEEOT_, symObjAddr: 0x194B0, symBinAddr: 0x10001D390, symSize: 0x20 }
  - { offsetInCU: 0x34AD0, offset: 0x34AD0, size: 0x8, addend: 0x0, symName: __ZNSt3__122__compressed_pair_elemINS_22__allocator_destructorINS_9allocatorI5ValueEEEELi1ELb0EEC2B7v160006IS5_vEEOT_, symObjAddr: 0x194D0, symBinAddr: 0x10001D3B0, symSize: 0x30 }
  - { offsetInCU: 0x34B12, offset: 0x34B12, size: 0x8, addend: 0x0, symName: __ZNKSt3__117__compressed_pairIP5ValueNS_22__allocator_destructorINS_9allocatorIS1_EEEEE5firstB7v160006Ev, symObjAddr: 0x19500, symBinAddr: 0x10001D3E0, symSize: 0x20 }
  - { offsetInCU: 0x34B38, offset: 0x34B38, size: 0x8, addend: 0x0, symName: __ZNKSt3__122__compressed_pair_elemIP5ValueLi0ELb0EE5__getB7v160006Ev, symObjAddr: 0x19520, symBinAddr: 0x10001D400, symSize: 0x10 }
  - { offsetInCU: 0x34B5E, offset: 0x34B5E, size: 0x8, addend: 0x0, symName: __ZNSt3__117__compressed_pairIP5ValueNS_22__allocator_destructorINS_9allocatorIS1_EEEEE5firstB7v160006Ev, symObjAddr: 0x19530, symBinAddr: 0x10001D410, symSize: 0x20 }
  - { offsetInCU: 0x34B84, offset: 0x34B84, size: 0x8, addend: 0x0, symName: __ZNSt3__122__compressed_pair_elemIP5ValueLi0ELb0EE5__getB7v160006Ev, symObjAddr: 0x19550, symBinAddr: 0x10001D430, symSize: 0x10 }
  - { offsetInCU: 0x34BAA, offset: 0x34BAA, size: 0x8, addend: 0x0, symName: __ZNSt3__117__compressed_pairIPP5ValueNS_9allocatorIS2_EEE5firstB7v160006Ev, symObjAddr: 0x19560, symBinAddr: 0x10001D440, symSize: 0x20 }
  - { offsetInCU: 0x34BD0, offset: 0x34BD0, size: 0x8, addend: 0x0, symName: __ZNSt3__122__compressed_pair_elemIPP5ValueLi0ELb0EE5__getB7v160006Ev, symObjAddr: 0x19580, symBinAddr: 0x10001D460, symSize: 0x10 }
  - { offsetInCU: 0x34BF6, offset: 0x34BF6, size: 0x8, addend: 0x0, symName: __ZNSt3__117__compressed_pairIPP5ValueRNS_9allocatorIS2_EEE5firstB7v160006Ev, symObjAddr: 0x19590, symBinAddr: 0x10001D470, symSize: 0x20 }
  - { offsetInCU: 0x34C1C, offset: 0x34C1C, size: 0x8, addend: 0x0, symName: __ZNSt3__110unique_ptrIP5ValueNS_22__allocator_destructorINS_9allocatorIS1_EEEEED2B7v160006Ev, symObjAddr: 0x195B0, symBinAddr: 0x10001D490, symSize: 0x20 }
  - { offsetInCU: 0x34C46, offset: 0x34C46, size: 0x8, addend: 0x0, symName: __ZNSt3__110unique_ptrIP5ValueNS_22__allocator_destructorINS_9allocatorIS1_EEEEE5resetB7v160006ES2_, symObjAddr: 0x195D0, symBinAddr: 0x10001D4B0, symSize: 0x70 }
  - { offsetInCU: 0x34C8A, offset: 0x34C8A, size: 0x8, addend: 0x0, symName: __ZNSt3__117__compressed_pairIP5ValueNS_22__allocator_destructorINS_9allocatorIS1_EEEEE6secondB7v160006Ev, symObjAddr: 0x19640, symBinAddr: 0x10001D520, symSize: 0x20 }
  - { offsetInCU: 0x34CB0, offset: 0x34CB0, size: 0x8, addend: 0x0, symName: __ZNSt3__122__allocator_destructorINS_9allocatorI5ValueEEEclB7v160006EPS2_, symObjAddr: 0x19660, symBinAddr: 0x10001D540, symSize: 0x30 }
  - { offsetInCU: 0x34CE4, offset: 0x34CE4, size: 0x8, addend: 0x0, symName: __ZNSt3__122__compressed_pair_elemINS_22__allocator_destructorINS_9allocatorI5ValueEEEELi1ELb0EE5__getB7v160006Ev, symObjAddr: 0x19690, symBinAddr: 0x10001D570, symSize: 0x10 }
  - { offsetInCU: 0x34D0A, offset: 0x34D0A, size: 0x8, addend: 0x0, symName: __ZNSt3__114__split_bufferIP5ValueRNS_9allocatorIS2_EEED2Ev, symObjAddr: 0x196A0, symBinAddr: 0x10001D580, symSize: 0x70 }
  - { offsetInCU: 0x34D36, offset: 0x34D36, size: 0x8, addend: 0x0, symName: __ZNSt3__114__split_bufferIP5ValueRNS_9allocatorIS2_EEE5clearB7v160006Ev, symObjAddr: 0x19710, symBinAddr: 0x10001D5F0, symSize: 0x20 }
  - { offsetInCU: 0x34D5C, offset: 0x34D5C, size: 0x8, addend: 0x0, symName: __ZNKSt3__114__split_bufferIP5ValueRNS_9allocatorIS2_EEE8capacityB7v160006Ev, symObjAddr: 0x19730, symBinAddr: 0x10001D610, symSize: 0x30 }
  - { offsetInCU: 0x34D82, offset: 0x34D82, size: 0x8, addend: 0x0, symName: __ZNSt3__114__split_bufferIP5ValueRNS_9allocatorIS2_EEE17__destruct_at_endB7v160006EPS2_, symObjAddr: 0x19760, symBinAddr: 0x10001D640, symSize: 0x30 }
  - { offsetInCU: 0x34DB6, offset: 0x34DB6, size: 0x8, addend: 0x0, symName: __ZNSt3__114__split_bufferIP5ValueRNS_9allocatorIS2_EEE17__destruct_at_endB7v160006EPS2_NS_17integral_constantIbLb0EEE, symObjAddr: 0x19790, symBinAddr: 0x10001D670, symSize: 0x80 }
  - { offsetInCU: 0x34DF7, offset: 0x34DF7, size: 0x8, addend: 0x0, symName: __ZNKSt3__114__split_bufferIP5ValueRNS_9allocatorIS2_EEE9__end_capB7v160006Ev, symObjAddr: 0x19810, symBinAddr: 0x10001D6F0, symSize: 0x20 }
  - { offsetInCU: 0x34E1D, offset: 0x34E1D, size: 0x8, addend: 0x0, symName: __ZNKSt3__117__compressed_pairIPP5ValueRNS_9allocatorIS2_EEE5firstB7v160006Ev, symObjAddr: 0x19830, symBinAddr: 0x10001D710, symSize: 0x20 }
  - { offsetInCU: 0x34E43, offset: 0x34E43, size: 0x8, addend: 0x0, symName: __ZNSt3__19allocatorI5ValueE9constructB7v160006IS1_JS1_EEEvPT_DpOT0_, symObjAddr: 0x19850, symBinAddr: 0x10001D730, symSize: 0x30 }
  - { offsetInCU: 0x34E99, offset: 0x34E99, size: 0x8, addend: 0x0, symName: __ZN5ValueC1EOS_, symObjAddr: 0x19880, symBinAddr: 0x10001D760, symSize: 0x30 }
  - { offsetInCU: 0x34ECE, offset: 0x34ECE, size: 0x8, addend: 0x0, symName: __ZN5ValueC2EOS_, symObjAddr: 0x198B0, symBinAddr: 0x10001D790, symSize: 0x50 }
  - { offsetInCU: 0x34F03, offset: 0x34F03, size: 0x8, addend: 0x0, symName: __ZNSt3__15stackIiNS_5dequeIiNS_9allocatorIiEEEEE4pushB7v160006ERKi, symObjAddr: 0x19900, symBinAddr: 0x10001D7E0, symSize: 0x30 }
  - { offsetInCU: 0x34F37, offset: 0x34F37, size: 0x8, addend: 0x0, symName: __ZNSt3__15dequeIiNS_9allocatorIiEEE9push_backERKi, symObjAddr: 0x19930, symBinAddr: 0x10001D810, symSize: 0x90 }
  - { offsetInCU: 0x34F7D, offset: 0x34F7D, size: 0x8, addend: 0x0, symName: __ZNKSt3__15dequeIiNS_9allocatorIiEEE12__back_spareB7v160006Ev, symObjAddr: 0x199C0, symBinAddr: 0x10001D8A0, symSize: 0x50 }
  - { offsetInCU: 0x34FA3, offset: 0x34FA3, size: 0x8, addend: 0x0, symName: __ZNSt3__15dequeIiNS_9allocatorIiEEE19__add_back_capacityEv, symObjAddr: 0x19A10, symBinAddr: 0x10001D8F0, symSize: 0x380 }
  - { offsetInCU: 0x35058, offset: 0x35058, size: 0x8, addend: 0x0, symName: __ZNSt3__116allocator_traitsINS_9allocatorIiEEE9constructB7v160006IiJRKiEvEEvRS2_PT_DpOT0_, symObjAddr: 0x19D90, symBinAddr: 0x10001DC70, symSize: 0x30 }
  - { offsetInCU: 0x350AF, offset: 0x350AF, size: 0x8, addend: 0x0, symName: __ZNKSt3__15dequeIiNS_9allocatorIiEEE10__capacityB7v160006Ev, symObjAddr: 0x19DC0, symBinAddr: 0x10001DCA0, symSize: 0x50 }
  - { offsetInCU: 0x350D5, offset: 0x350D5, size: 0x8, addend: 0x0, symName: __ZNKSt3__15dequeIiNS_9allocatorIiEEE13__front_spareB7v160006Ev, symObjAddr: 0x19E10, symBinAddr: 0x10001DCF0, symSize: 0x20 }
  - { offsetInCU: 0x350FB, offset: 0x350FB, size: 0x8, addend: 0x0, symName: __ZNSt3__114__split_bufferIPiNS_9allocatorIS1_EEE9push_backB7v160006ERKS1_, symObjAddr: 0x19E30, symBinAddr: 0x10001DD10, symSize: 0x290 }
  - { offsetInCU: 0x35173, offset: 0x35173, size: 0x8, addend: 0x0, symName: __ZNKSt3__114__split_bufferIPiNS_9allocatorIS1_EEE12__back_spareB7v160006Ev, symObjAddr: 0x1A0C0, symBinAddr: 0x10001DFA0, symSize: 0x40 }
  - { offsetInCU: 0x35199, offset: 0x35199, size: 0x8, addend: 0x0, symName: __ZNSt3__114__split_bufferIPiNS_9allocatorIS1_EEE9push_backEOS1_, symObjAddr: 0x1A100, symBinAddr: 0x10001DFE0, symSize: 0x290 }
  - { offsetInCU: 0x35211, offset: 0x35211, size: 0x8, addend: 0x0, symName: __ZNSt3__116allocator_traitsINS_9allocatorIiEEE8allocateB7v160006ERS2_m, symObjAddr: 0x1A390, symBinAddr: 0x10001E270, symSize: 0x30 }
  - { offsetInCU: 0x35244, offset: 0x35244, size: 0x8, addend: 0x0, symName: __ZNSt3__114__split_bufferIPiNS_9allocatorIS1_EEE10push_frontEOS1_, symObjAddr: 0x1A3C0, symBinAddr: 0x10001E2A0, symSize: 0x270 }
  - { offsetInCU: 0x352BC, offset: 0x352BC, size: 0x8, addend: 0x0, symName: __ZNSt3__114__split_bufferIPiRNS_9allocatorIS1_EEEC1EmmS4_, symObjAddr: 0x1A630, symBinAddr: 0x10001E510, symSize: 0x40 }
  - { offsetInCU: 0x35318, offset: 0x35318, size: 0x8, addend: 0x0, symName: __ZNSt3__122__allocator_destructorINS_9allocatorIiEEEC1B7v160006ERS2_m, symObjAddr: 0x1A670, symBinAddr: 0x10001E550, symSize: 0x30 }
  - { offsetInCU: 0x353EE, offset: 0x353EE, size: 0x8, addend: 0x0, symName: __ZNSt3__110unique_ptrIPiNS_22__allocator_destructorINS_9allocatorIiEEEEEC1B7v160006ILb1EvEES1_NS_16__dependent_typeINS_27__unique_ptr_deleter_sfinaeIS5_EEXT_EE20__good_rval_ref_typeE, symObjAddr: 0x1A6A0, symBinAddr: 0x10001E580, symSize: 0x30 }
  - { offsetInCU: 0x3543F, offset: 0x3543F, size: 0x8, addend: 0x0, symName: __ZNSt3__114__split_bufferIPiRNS_9allocatorIS1_EEE9push_backEOS1_, symObjAddr: 0x1A6D0, symBinAddr: 0x10001E5B0, symSize: 0x290 }
  - { offsetInCU: 0x354B7, offset: 0x354B7, size: 0x8, addend: 0x0, symName: __ZNKSt3__110unique_ptrIPiNS_22__allocator_destructorINS_9allocatorIiEEEEE3getB7v160006Ev, symObjAddr: 0x1A960, symBinAddr: 0x10001E840, symSize: 0x20 }
  - { offsetInCU: 0x354DD, offset: 0x354DD, size: 0x8, addend: 0x0, symName: __ZNSt3__110unique_ptrIPiNS_22__allocator_destructorINS_9allocatorIiEEEEE7releaseB7v160006Ev, symObjAddr: 0x1A980, symBinAddr: 0x10001E860, symSize: 0x40 }
  - { offsetInCU: 0x35512, offset: 0x35512, size: 0x8, addend: 0x0, symName: __ZNSt3__114__split_bufferIPiRNS_9allocatorIS1_EEE10push_frontERKS1_, symObjAddr: 0x1A9C0, symBinAddr: 0x10001E8A0, symSize: 0x270 }
  - { offsetInCU: 0x3558A, offset: 0x3558A, size: 0x8, addend: 0x0, symName: __ZNSt3__114__split_bufferIPiNS_9allocatorIS1_EEE9__end_capB7v160006Ev, symObjAddr: 0x1AC70, symBinAddr: 0x10001EB50, symSize: 0x20 }
  - { offsetInCU: 0x355B0, offset: 0x355B0, size: 0x8, addend: 0x0, symName: __ZNSt3__114__split_bufferIPiRNS_9allocatorIS1_EEE9__end_capB7v160006Ev, symObjAddr: 0x1AC90, symBinAddr: 0x10001EB70, symSize: 0x20 }
  - { offsetInCU: 0x355D6, offset: 0x355D6, size: 0x8, addend: 0x0, symName: __ZNSt3__110unique_ptrIPiNS_22__allocator_destructorINS_9allocatorIiEEEEED1B7v160006Ev, symObjAddr: 0x1ACB0, symBinAddr: 0x10001EB90, symSize: 0x20 }
  - { offsetInCU: 0x35600, offset: 0x35600, size: 0x8, addend: 0x0, symName: __ZNSt3__114__split_bufferIPiRNS_9allocatorIS1_EEED1Ev, symObjAddr: 0x1ACD0, symBinAddr: 0x10001EBB0, symSize: 0x20 }
  - { offsetInCU: 0x3562C, offset: 0x3562C, size: 0x8, addend: 0x0, symName: __ZNSt3__114__split_bufferIPiRNS_9allocatorIS1_EEE18__construct_at_endINS_13move_iteratorIPS1_EEEENS_9enable_ifIXsr27__is_cpp17_forward_iteratorIT_EE5valueEvE4typeESB_SB_, symObjAddr: 0x1AD30, symBinAddr: 0x10001EC10, symSize: 0x100 }
  - { offsetInCU: 0x35688, offset: 0x35688, size: 0x8, addend: 0x0, symName: __ZNSt3__113move_iteratorIPPiEC1B7v160006ES2_, symObjAddr: 0x1AE30, symBinAddr: 0x10001ED10, symSize: 0x30 }
  - { offsetInCU: 0x356C0, offset: 0x356C0, size: 0x8, addend: 0x0, symName: __ZNSt3__116allocator_traitsINS_9allocatorIPiEEE9constructB7v160006IS2_JRKS2_EvEEvRS3_PT_DpOT0_, symObjAddr: 0x1AE60, symBinAddr: 0x10001ED40, symSize: 0x30 }
  - { offsetInCU: 0x35734, offset: 0x35734, size: 0x8, addend: 0x0, symName: __ZNKSt3__114__move_trivialclB7v160006IPiS2_Li0EEENS_4pairIPT_PT0_EES5_S5_S7_, symObjAddr: 0x1B010, symBinAddr: 0x10001EEF0, symSize: 0x40 }
  - { offsetInCU: 0x357A2, offset: 0x357A2, size: 0x8, addend: 0x0, symName: __ZNSt3__14pairIPPiS2_EC1B7v160006IRS2_S2_LPv0EEEOT_OT0_, symObjAddr: 0x1B1B0, symBinAddr: 0x10001F090, symSize: 0x30 }
  - { offsetInCU: 0x35800, offset: 0x35800, size: 0x8, addend: 0x0, symName: __ZNSt3__14pairIPPiS2_EC2B7v160006IRS2_S2_LPv0EEEOT_OT0_, symObjAddr: 0x1B1E0, symBinAddr: 0x10001F0C0, symSize: 0x30 }
  - { offsetInCU: 0x3585E, offset: 0x3585E, size: 0x8, addend: 0x0, symName: __ZNSt3__118__unwrap_iter_implIPPiLb1EE8__unwrapB7v160006ES2_, symObjAddr: 0x1B210, symBinAddr: 0x10001F0F0, symSize: 0x20 }
  - { offsetInCU: 0x35881, offset: 0x35881, size: 0x8, addend: 0x0, symName: __ZNSt3__14pairIPPiS2_EC1B7v160006IS2_S2_LPv0EEEOT_OT0_, symObjAddr: 0x1B230, symBinAddr: 0x10001F110, symSize: 0x30 }
  - { offsetInCU: 0x358DF, offset: 0x358DF, size: 0x8, addend: 0x0, symName: __ZNSt3__14pairIPPiS2_EC2B7v160006IS2_S2_LPv0EEEOT_OT0_, symObjAddr: 0x1B260, symBinAddr: 0x10001F140, symSize: 0x30 }
  - { offsetInCU: 0x3593D, offset: 0x3593D, size: 0x8, addend: 0x0, symName: __ZNSt3__118__unwrap_iter_implIPPiLb1EE8__rewrapB7v160006ES2_S2_, symObjAddr: 0x1B290, symBinAddr: 0x10001F170, symSize: 0x50 }
  - { offsetInCU: 0x3597A, offset: 0x3597A, size: 0x8, addend: 0x0, symName: __ZNSt3__114__split_bufferIPiRNS_9allocatorIS1_EEE21_ConstructTransactionC1B7v160006EPPS1_m, symObjAddr: 0x1B320, symBinAddr: 0x10001F200, symSize: 0x30 }
  - { offsetInCU: 0x359C0, offset: 0x359C0, size: 0x8, addend: 0x0, symName: __ZNSt3__116allocator_traitsINS_9allocatorIPiEEE9constructB7v160006IS2_JS2_EvEEvRS3_PT_DpOT0_, symObjAddr: 0x1B350, symBinAddr: 0x10001F230, symSize: 0x30 }
  - { offsetInCU: 0x35A17, offset: 0x35A17, size: 0x8, addend: 0x0, symName: __ZNSt3__114__split_bufferIPiRNS_9allocatorIS1_EEE7__allocB7v160006Ev, symObjAddr: 0x1B380, symBinAddr: 0x10001F260, symSize: 0x20 }
  - { offsetInCU: 0x35A3D, offset: 0x35A3D, size: 0x8, addend: 0x0, symName: __ZNKSt3__113move_iteratorIPPiEdeB7v160006Ev, symObjAddr: 0x1B3A0, symBinAddr: 0x10001F280, symSize: 0x20 }
  - { offsetInCU: 0x35A63, offset: 0x35A63, size: 0x8, addend: 0x0, symName: __ZNSt3__113move_iteratorIPPiEppB7v160006Ev, symObjAddr: 0x1B3C0, symBinAddr: 0x10001F2A0, symSize: 0x20 }
  - { offsetInCU: 0x35A89, offset: 0x35A89, size: 0x8, addend: 0x0, symName: __ZNSt3__114__split_bufferIPiRNS_9allocatorIS1_EEE21_ConstructTransactionD1B7v160006Ev, symObjAddr: 0x1B3E0, symBinAddr: 0x10001F2C0, symSize: 0x20 }
  - { offsetInCU: 0x35AB3, offset: 0x35AB3, size: 0x8, addend: 0x0, symName: __ZNKSt3__113move_iteratorIPPiE4baseB7v160006Ev, symObjAddr: 0x1B470, symBinAddr: 0x10001F350, symSize: 0x20 }
  - { offsetInCU: 0x35AD9, offset: 0x35AD9, size: 0x8, addend: 0x0, symName: __ZNSt3__114__split_bufferIPiRNS_9allocatorIS1_EEE21_ConstructTransactionC2B7v160006EPPS1_m, symObjAddr: 0x1B490, symBinAddr: 0x10001F370, symSize: 0x40 }
  - { offsetInCU: 0x35B1F, offset: 0x35B1F, size: 0x8, addend: 0x0, symName: __ZNSt3__19allocatorIPiE9constructB7v160006IS1_JS1_EEEvPT_DpOT0_, symObjAddr: 0x1B4D0, symBinAddr: 0x10001F3B0, symSize: 0x20 }
  - { offsetInCU: 0x35B75, offset: 0x35B75, size: 0x8, addend: 0x0, symName: __ZNSt3__117__compressed_pairIPPiRNS_9allocatorIS1_EEE6secondB7v160006Ev, symObjAddr: 0x1B4F0, symBinAddr: 0x10001F3D0, symSize: 0x20 }
  - { offsetInCU: 0x35B9B, offset: 0x35B9B, size: 0x8, addend: 0x0, symName: __ZNSt3__122__compressed_pair_elemIRNS_9allocatorIPiEELi1ELb0EE5__getB7v160006Ev, symObjAddr: 0x1B510, symBinAddr: 0x10001F3F0, symSize: 0x20 }
  - { offsetInCU: 0x35BC1, offset: 0x35BC1, size: 0x8, addend: 0x0, symName: __ZNSt3__114__split_bufferIPiRNS_9allocatorIS1_EEE21_ConstructTransactionD2B7v160006Ev, symObjAddr: 0x1B530, symBinAddr: 0x10001F410, symSize: 0x20 }
  - { offsetInCU: 0x35BEB, offset: 0x35BEB, size: 0x8, addend: 0x0, symName: __ZNSt3__113move_iteratorIPPiEC2B7v160006ES2_, symObjAddr: 0x1B550, symBinAddr: 0x10001F430, symSize: 0x20 }
  - { offsetInCU: 0x35C23, offset: 0x35C23, size: 0x8, addend: 0x0, symName: __ZNSt3__19allocatorIPiE9constructB7v160006IS1_JRKS1_EEEvPT_DpOT0_, symObjAddr: 0x1B570, symBinAddr: 0x10001F450, symSize: 0x20 }
  - { offsetInCU: 0x35C79, offset: 0x35C79, size: 0x8, addend: 0x0, symName: __ZNSt3__19allocatorIiE8allocateB7v160006Em, symObjAddr: 0x1B590, symBinAddr: 0x10001F470, symSize: 0x50 }
  - { offsetInCU: 0x35CB8, offset: 0x35CB8, size: 0x8, addend: 0x0, symName: __ZNSt3__116allocator_traitsINS_9allocatorIiEEE8max_sizeB7v160006IS2_vEEmRKS2_, symObjAddr: 0x1B5E0, symBinAddr: 0x10001F4C0, symSize: 0x20 }
  - { offsetInCU: 0x35CE6, offset: 0x35CE6, size: 0x8, addend: 0x0, symName: __ZNKSt3__19allocatorIiE8max_sizeB7v160006Ev, symObjAddr: 0x1B600, symBinAddr: 0x10001F4E0, symSize: 0x20 }
  - { offsetInCU: 0x35D0C, offset: 0x35D0C, size: 0x8, addend: 0x0, symName: __ZNKSt3__123__move_backward_trivialclB7v160006IPiS2_Li0EEENS_4pairIPT_PT0_EES5_S5_S7_, symObjAddr: 0x1B790, symBinAddr: 0x10001F670, symSize: 0x40 }
  - { offsetInCU: 0x35D74, offset: 0x35D74, size: 0x8, addend: 0x0, symName: __ZNSt3__14pairIPPiS2_EC1B7v160006IRS2_S5_LPv0EEEOT_OT0_, symObjAddr: 0x1B880, symBinAddr: 0x10001F760, symSize: 0x30 }
  - { offsetInCU: 0x35DD2, offset: 0x35DD2, size: 0x8, addend: 0x0, symName: __ZNSt3__14pairIPPiS2_EC2B7v160006IRS2_S5_LPv0EEEOT_OT0_, symObjAddr: 0x1B8B0, symBinAddr: 0x10001F790, symSize: 0x30 }
  - { offsetInCU: 0x35E30, offset: 0x35E30, size: 0x8, addend: 0x0, symName: __ZNSt3__114__split_bufferIPiRNS_9allocatorIS1_EEEC2EmmS4_, symObjAddr: 0x1B8E0, symBinAddr: 0x10001F7C0, symSize: 0xD0 }
  - { offsetInCU: 0x35EA3, offset: 0x35EA3, size: 0x8, addend: 0x0, symName: __ZNSt3__117__compressed_pairIPPiRNS_9allocatorIS1_EEEC1B7v160006IDnS5_EEOT_OT0_, symObjAddr: 0x1B9B0, symBinAddr: 0x10001F890, symSize: 0x30 }
  - { offsetInCU: 0x35EFB, offset: 0x35EFB, size: 0x8, addend: 0x0, symName: __ZNSt3__117__compressed_pairIPPiRNS_9allocatorIS1_EEEC2B7v160006IDnS5_EEOT_OT0_, symObjAddr: 0x1BA20, symBinAddr: 0x10001F900, symSize: 0x40 }
  - { offsetInCU: 0x35F53, offset: 0x35F53, size: 0x8, addend: 0x0, symName: __ZNSt3__122__compressed_pair_elemIRNS_9allocatorIPiEELi1ELb0EEC2B7v160006IS4_vEEOT_, symObjAddr: 0x1BA60, symBinAddr: 0x10001F940, symSize: 0x20 }
  - { offsetInCU: 0x35F95, offset: 0x35F95, size: 0x8, addend: 0x0, symName: __ZNSt3__19allocatorIPiE8allocateB7v160006Em, symObjAddr: 0x1BA80, symBinAddr: 0x10001F960, symSize: 0x50 }
  - { offsetInCU: 0x35FD4, offset: 0x35FD4, size: 0x8, addend: 0x0, symName: __ZNSt3__116allocator_traitsINS_9allocatorIPiEEE8max_sizeB7v160006IS3_vEEmRKS3_, symObjAddr: 0x1BAD0, symBinAddr: 0x10001F9B0, symSize: 0x20 }
  - { offsetInCU: 0x36002, offset: 0x36002, size: 0x8, addend: 0x0, symName: __ZNKSt3__19allocatorIPiE8max_sizeB7v160006Ev, symObjAddr: 0x1BAF0, symBinAddr: 0x10001F9D0, symSize: 0x20 }
  - { offsetInCU: 0x36028, offset: 0x36028, size: 0x8, addend: 0x0, symName: __ZNSt3__122__allocator_destructorINS_9allocatorIiEEEC2B7v160006ERS2_m, symObjAddr: 0x1BB10, symBinAddr: 0x10001F9F0, symSize: 0x30 }
  - { offsetInCU: 0x3606E, offset: 0x3606E, size: 0x8, addend: 0x0, symName: __ZNSt3__110unique_ptrIPiNS_22__allocator_destructorINS_9allocatorIiEEEEEC2B7v160006ILb1EvEES1_NS_16__dependent_typeINS_27__unique_ptr_deleter_sfinaeIS5_EEXT_EE20__good_rval_ref_typeE, symObjAddr: 0x1BB40, symBinAddr: 0x10001FA20, symSize: 0x40 }
  - { offsetInCU: 0x360BF, offset: 0x360BF, size: 0x8, addend: 0x0, symName: __ZNSt3__117__compressed_pairIPiNS_22__allocator_destructorINS_9allocatorIiEEEEEC1B7v160006IRS1_S5_EEOT_OT0_, symObjAddr: 0x1BB80, symBinAddr: 0x10001FA60, symSize: 0x30 }
  - { offsetInCU: 0x36117, offset: 0x36117, size: 0x8, addend: 0x0, symName: __ZNSt3__117__compressed_pairIPiNS_22__allocator_destructorINS_9allocatorIiEEEEEC2B7v160006IRS1_S5_EEOT_OT0_, symObjAddr: 0x1BBB0, symBinAddr: 0x10001FA90, symSize: 0x40 }
  - { offsetInCU: 0x3616F, offset: 0x3616F, size: 0x8, addend: 0x0, symName: __ZNSt3__122__compressed_pair_elemIPiLi0ELb0EEC2B7v160006IRS1_vEEOT_, symObjAddr: 0x1BBF0, symBinAddr: 0x10001FAD0, symSize: 0x20 }
  - { offsetInCU: 0x361B1, offset: 0x361B1, size: 0x8, addend: 0x0, symName: __ZNSt3__122__compressed_pair_elemINS_22__allocator_destructorINS_9allocatorIiEEEELi1ELb0EEC2B7v160006IS4_vEEOT_, symObjAddr: 0x1BC10, symBinAddr: 0x10001FAF0, symSize: 0x30 }
  - { offsetInCU: 0x361F3, offset: 0x361F3, size: 0x8, addend: 0x0, symName: __ZNKSt3__117__compressed_pairIPiNS_22__allocator_destructorINS_9allocatorIiEEEEE5firstB7v160006Ev, symObjAddr: 0x1BC40, symBinAddr: 0x10001FB20, symSize: 0x20 }
  - { offsetInCU: 0x36219, offset: 0x36219, size: 0x8, addend: 0x0, symName: __ZNKSt3__122__compressed_pair_elemIPiLi0ELb0EE5__getB7v160006Ev, symObjAddr: 0x1BC60, symBinAddr: 0x10001FB40, symSize: 0x10 }
  - { offsetInCU: 0x3623F, offset: 0x3623F, size: 0x8, addend: 0x0, symName: __ZNSt3__117__compressed_pairIPiNS_22__allocator_destructorINS_9allocatorIiEEEEE5firstB7v160006Ev, symObjAddr: 0x1BC70, symBinAddr: 0x10001FB50, symSize: 0x20 }
  - { offsetInCU: 0x36265, offset: 0x36265, size: 0x8, addend: 0x0, symName: __ZNSt3__122__compressed_pair_elemIPiLi0ELb0EE5__getB7v160006Ev, symObjAddr: 0x1BC90, symBinAddr: 0x10001FB70, symSize: 0x10 }
  - { offsetInCU: 0x3628B, offset: 0x3628B, size: 0x8, addend: 0x0, symName: __ZNSt3__117__compressed_pairIPPiNS_9allocatorIS1_EEE5firstB7v160006Ev, symObjAddr: 0x1BCA0, symBinAddr: 0x10001FB80, symSize: 0x20 }
  - { offsetInCU: 0x362B1, offset: 0x362B1, size: 0x8, addend: 0x0, symName: __ZNSt3__122__compressed_pair_elemIPPiLi0ELb0EE5__getB7v160006Ev, symObjAddr: 0x1BCC0, symBinAddr: 0x10001FBA0, symSize: 0x10 }
  - { offsetInCU: 0x362D7, offset: 0x362D7, size: 0x8, addend: 0x0, symName: __ZNSt3__117__compressed_pairIPPiRNS_9allocatorIS1_EEE5firstB7v160006Ev, symObjAddr: 0x1BCD0, symBinAddr: 0x10001FBB0, symSize: 0x20 }
  - { offsetInCU: 0x362FD, offset: 0x362FD, size: 0x8, addend: 0x0, symName: __ZNSt3__110unique_ptrIPiNS_22__allocator_destructorINS_9allocatorIiEEEEED2B7v160006Ev, symObjAddr: 0x1BCF0, symBinAddr: 0x10001FBD0, symSize: 0x20 }
  - { offsetInCU: 0x36327, offset: 0x36327, size: 0x8, addend: 0x0, symName: __ZNSt3__110unique_ptrIPiNS_22__allocator_destructorINS_9allocatorIiEEEEE5resetB7v160006ES1_, symObjAddr: 0x1BD10, symBinAddr: 0x10001FBF0, symSize: 0x70 }
  - { offsetInCU: 0x3636B, offset: 0x3636B, size: 0x8, addend: 0x0, symName: __ZNSt3__117__compressed_pairIPiNS_22__allocator_destructorINS_9allocatorIiEEEEE6secondB7v160006Ev, symObjAddr: 0x1BD80, symBinAddr: 0x10001FC60, symSize: 0x20 }
  - { offsetInCU: 0x36391, offset: 0x36391, size: 0x8, addend: 0x0, symName: __ZNSt3__122__allocator_destructorINS_9allocatorIiEEEclB7v160006EPi, symObjAddr: 0x1BDA0, symBinAddr: 0x10001FC80, symSize: 0x30 }
  - { offsetInCU: 0x363C5, offset: 0x363C5, size: 0x8, addend: 0x0, symName: __ZNSt3__122__compressed_pair_elemINS_22__allocator_destructorINS_9allocatorIiEEEELi1ELb0EE5__getB7v160006Ev, symObjAddr: 0x1BDD0, symBinAddr: 0x10001FCB0, symSize: 0x10 }
  - { offsetInCU: 0x363EB, offset: 0x363EB, size: 0x8, addend: 0x0, symName: __ZNSt3__114__split_bufferIPiRNS_9allocatorIS1_EEED2Ev, symObjAddr: 0x1BDE0, symBinAddr: 0x10001FCC0, symSize: 0x70 }
  - { offsetInCU: 0x36417, offset: 0x36417, size: 0x8, addend: 0x0, symName: __ZNSt3__114__split_bufferIPiRNS_9allocatorIS1_EEE5clearB7v160006Ev, symObjAddr: 0x1BE50, symBinAddr: 0x10001FD30, symSize: 0x20 }
  - { offsetInCU: 0x3643D, offset: 0x3643D, size: 0x8, addend: 0x0, symName: __ZNKSt3__114__split_bufferIPiRNS_9allocatorIS1_EEE8capacityB7v160006Ev, symObjAddr: 0x1BE70, symBinAddr: 0x10001FD50, symSize: 0x30 }
  - { offsetInCU: 0x36463, offset: 0x36463, size: 0x8, addend: 0x0, symName: __ZNSt3__114__split_bufferIPiRNS_9allocatorIS1_EEE17__destruct_at_endB7v160006EPS1_, symObjAddr: 0x1BEA0, symBinAddr: 0x10001FD80, symSize: 0x30 }
  - { offsetInCU: 0x36497, offset: 0x36497, size: 0x8, addend: 0x0, symName: __ZNSt3__114__split_bufferIPiRNS_9allocatorIS1_EEE17__destruct_at_endB7v160006EPS1_NS_17integral_constantIbLb0EEE, symObjAddr: 0x1BED0, symBinAddr: 0x10001FDB0, symSize: 0x80 }
  - { offsetInCU: 0x364D8, offset: 0x364D8, size: 0x8, addend: 0x0, symName: __ZNKSt3__114__split_bufferIPiRNS_9allocatorIS1_EEE9__end_capB7v160006Ev, symObjAddr: 0x1BF50, symBinAddr: 0x10001FE30, symSize: 0x20 }
  - { offsetInCU: 0x364FE, offset: 0x364FE, size: 0x8, addend: 0x0, symName: __ZNKSt3__117__compressed_pairIPPiRNS_9allocatorIS1_EEE5firstB7v160006Ev, symObjAddr: 0x1BF70, symBinAddr: 0x10001FE50, symSize: 0x20 }
  - { offsetInCU: 0x36524, offset: 0x36524, size: 0x8, addend: 0x0, symName: __ZNSt3__19allocatorIiE9constructB7v160006IiJRKiEEEvPT_DpOT0_, symObjAddr: 0x1BF90, symBinAddr: 0x10001FE70, symSize: 0x20 }
  - { offsetInCU: 0x3657A, offset: 0x3657A, size: 0x8, addend: 0x0, symName: __ZNKSt3__15stackI5ValueNS_5dequeIS1_NS_9allocatorIS1_EEEEE5emptyB7v160006Ev, symObjAddr: 0x1BFB0, symBinAddr: 0x10001FE90, symSize: 0x20 }
  - { offsetInCU: 0x365A0, offset: 0x365A0, size: 0x8, addend: 0x0, symName: __ZNKSt3__15dequeI5ValueNS_9allocatorIS1_EEE5emptyB7v160006Ev, symObjAddr: 0x1BFD0, symBinAddr: 0x10001FEB0, symSize: 0x30 }
  - { offsetInCU: 0x365C6, offset: 0x365C6, size: 0x8, addend: 0x0, symName: __ZN14SyntaxAnalyzer4TermEv, symObjAddr: 0x1C000, symBinAddr: 0x10001FEE0, symSize: 0x50 }
  - { offsetInCU: 0x365EC, offset: 0x365EC, size: 0x8, addend: 0x0, symName: __ZN14SyntaxAnalyzer1EEv, symObjAddr: 0x1C050, symBinAddr: 0x10001FF30, symSize: 0x330 }
  - { offsetInCU: 0x36630, offset: 0x36630, size: 0x8, addend: 0x0, symName: __ZN14SyntaxAnalyzer6FactorEv, symObjAddr: 0x1C380, symBinAddr: 0x100020260, symSize: 0x160 }
  - { offsetInCU: 0x36665, offset: 0x36665, size: 0x8, addend: 0x0, symName: __ZN14SyntaxAnalyzer1TEv, symObjAddr: 0x1C4E0, symBinAddr: 0x1000203C0, symSize: 0x330 }
  - { offsetInCU: 0x366A9, offset: 0x366A9, size: 0x8, addend: 0x0, symName: __ZN14SyntaxAnalyzer7PrimaryEv, symObjAddr: 0x1C810, symBinAddr: 0x1000206F0, symSize: 0x800 }
  - { offsetInCU: 0x366F4, offset: 0x366F4, size: 0x8, addend: 0x0, symName: __ZN19Symbol_and_Assembly5PUSHMENSt3__112basic_stringIcNS0_11char_traitsIcEENS0_9allocatorIcEEEE, symObjAddr: 0x1D010, symBinAddr: 0x100020EF0, symSize: 0x140 }
  - { offsetInCU: 0x36738, offset: 0x36738, size: 0x8, addend: 0x0, symName: __ZNSt3__18optionalIiEC1B7v160006IiLi0EEEOT_, symObjAddr: 0x1D150, symBinAddr: 0x100021030, symSize: 0x30 }
  - { offsetInCU: 0x36780, offset: 0x36780, size: 0x8, addend: 0x0, symName: __ZN19Symbol_and_Assembly5PUSHIEi, symObjAddr: 0x1D180, symBinAddr: 0x100021060, symSize: 0x70 }
  - { offsetInCU: 0x367B4, offset: 0x367B4, size: 0x8, addend: 0x0, symName: __ZN19Symbol_and_Assembly5PUSHBEb, symObjAddr: 0x1D1F0, symBinAddr: 0x1000210D0, symSize: 0x80 }
  - { offsetInCU: 0x367E8, offset: 0x367E8, size: 0x8, addend: 0x0, symName: __ZNSt3__15stackI5ValueNS_5dequeIS1_NS_9allocatorIS1_EEEEE4pushB7v160006ERKS1_, symObjAddr: 0x1D2A0, symBinAddr: 0x100021180, symSize: 0x30 }
  - { offsetInCU: 0x3681C, offset: 0x3681C, size: 0x8, addend: 0x0, symName: __ZNSt3__15dequeI5ValueNS_9allocatorIS1_EEE9push_backERKS1_, symObjAddr: 0x1D300, symBinAddr: 0x1000211E0, symSize: 0x90 }
  - { offsetInCU: 0x36862, offset: 0x36862, size: 0x8, addend: 0x0, symName: __ZNSt3__116allocator_traitsINS_9allocatorI5ValueEEE9constructB7v160006IS2_JRKS2_EvEEvRS3_PT_DpOT0_, symObjAddr: 0x1D390, symBinAddr: 0x100021270, symSize: 0x30 }
  - { offsetInCU: 0x368B9, offset: 0x368B9, size: 0x8, addend: 0x0, symName: __ZNSt3__19allocatorI5ValueE9constructB7v160006IS1_JRKS1_EEEvPT_DpOT0_, symObjAddr: 0x1D3C0, symBinAddr: 0x1000212A0, symSize: 0x30 }
  - { offsetInCU: 0x3690F, offset: 0x3690F, size: 0x8, addend: 0x0, symName: __ZNSt3__18optionalIiEC2B7v160006IiLi0EEEOT_, symObjAddr: 0x1D3F0, symBinAddr: 0x1000212D0, symSize: 0x30 }
  - { offsetInCU: 0x36957, offset: 0x36957, size: 0x8, addend: 0x0, symName: __ZNSt3__127__optional_move_assign_baseIiLb1EECI2NS_24__optional_destruct_baseIiLb1EEEIJiEEENS_10in_place_tEDpOT_, symObjAddr: 0x1D420, symBinAddr: 0x100021300, symSize: 0x30 }
  - { offsetInCU: 0x36996, offset: 0x36996, size: 0x8, addend: 0x0, symName: __ZNSt3__127__optional_copy_assign_baseIiLb1EECI2NS_24__optional_destruct_baseIiLb1EEEIJiEEENS_10in_place_tEDpOT_, symObjAddr: 0x1D450, symBinAddr: 0x100021330, symSize: 0x30 }
  - { offsetInCU: 0x369D5, offset: 0x369D5, size: 0x8, addend: 0x0, symName: __ZNSt3__120__optional_move_baseIiLb1EECI2NS_24__optional_destruct_baseIiLb1EEEIJiEEENS_10in_place_tEDpOT_, symObjAddr: 0x1D480, symBinAddr: 0x100021360, symSize: 0x30 }
  - { offsetInCU: 0x36A14, offset: 0x36A14, size: 0x8, addend: 0x0, symName: __ZNSt3__120__optional_copy_baseIiLb1EECI2NS_24__optional_destruct_baseIiLb1EEEIJiEEENS_10in_place_tEDpOT_, symObjAddr: 0x1D4B0, symBinAddr: 0x100021390, symSize: 0x30 }
  - { offsetInCU: 0x36A53, offset: 0x36A53, size: 0x8, addend: 0x0, symName: __ZNSt3__123__optional_storage_baseIiLb0EECI2NS_24__optional_destruct_baseIiLb1EEEIJiEEENS_10in_place_tEDpOT_, symObjAddr: 0x1D4E0, symBinAddr: 0x1000213C0, symSize: 0x30 }
  - { offsetInCU: 0x36A92, offset: 0x36A92, size: 0x8, addend: 0x0, symName: __ZNSt3__124__optional_destruct_baseIiLb1EEC2B7v160006IJiEEENS_10in_place_tEDpOT_, symObjAddr: 0x1D510, symBinAddr: 0x1000213F0, symSize: 0x20 }
  - { offsetInCU: 0x36AE2, offset: 0x36AE2, size: 0x8, addend: 0x0, symName: __ZN5ValueC1Ei, symObjAddr: 0x1D530, symBinAddr: 0x100021410, symSize: 0x30 }
  - { offsetInCU: 0x36B1A, offset: 0x36B1A, size: 0x8, addend: 0x0, symName: __ZN5ValueC2Ei, symObjAddr: 0x1D560, symBinAddr: 0x100021440, symSize: 0x60 }
  - { offsetInCU: 0x36B52, offset: 0x36B52, size: 0x8, addend: 0x0, symName: __ZNSt3__18optionalIiEC1B7v160006IRiLi0EEEOT_, symObjAddr: 0x1D5C0, symBinAddr: 0x1000214A0, symSize: 0x30 }
  - { offsetInCU: 0x36B9A, offset: 0x36B9A, size: 0x8, addend: 0x0, symName: __ZNSt3__18optionalIiEC2B7v160006IRiLi0EEEOT_, symObjAddr: 0x1D5F0, symBinAddr: 0x1000214D0, symSize: 0x30 }
  - { offsetInCU: 0x36BE2, offset: 0x36BE2, size: 0x8, addend: 0x0, symName: __ZNSt3__127__optional_move_assign_baseIiLb1EECI2NS_24__optional_destruct_baseIiLb1EEEIJRiEEENS_10in_place_tEDpOT_, symObjAddr: 0x1D620, symBinAddr: 0x100021500, symSize: 0x30 }
  - { offsetInCU: 0x36C21, offset: 0x36C21, size: 0x8, addend: 0x0, symName: __ZNSt3__127__optional_copy_assign_baseIiLb1EECI2NS_24__optional_destruct_baseIiLb1EEEIJRiEEENS_10in_place_tEDpOT_, symObjAddr: 0x1D650, symBinAddr: 0x100021530, symSize: 0x30 }
  - { offsetInCU: 0x36C60, offset: 0x36C60, size: 0x8, addend: 0x0, symName: __ZNSt3__120__optional_move_baseIiLb1EECI2NS_24__optional_destruct_baseIiLb1EEEIJRiEEENS_10in_place_tEDpOT_, symObjAddr: 0x1D680, symBinAddr: 0x100021560, symSize: 0x30 }
  - { offsetInCU: 0x36C9F, offset: 0x36C9F, size: 0x8, addend: 0x0, symName: __ZNSt3__120__optional_copy_baseIiLb1EECI2NS_24__optional_destruct_baseIiLb1EEEIJRiEEENS_10in_place_tEDpOT_, symObjAddr: 0x1D6B0, symBinAddr: 0x100021590, symSize: 0x30 }
  - { offsetInCU: 0x36CDE, offset: 0x36CDE, size: 0x8, addend: 0x0, symName: __ZNSt3__123__optional_storage_baseIiLb0EECI2NS_24__optional_destruct_baseIiLb1EEEIJRiEEENS_10in_place_tEDpOT_, symObjAddr: 0x1D6E0, symBinAddr: 0x1000215C0, symSize: 0x30 }
  - { offsetInCU: 0x36D1D, offset: 0x36D1D, size: 0x8, addend: 0x0, symName: __ZNSt3__124__optional_destruct_baseIiLb1EEC2B7v160006IJRiEEENS_10in_place_tEDpOT_, symObjAddr: 0x1D710, symBinAddr: 0x1000215F0, symSize: 0x20 }
  - { offsetInCU: 0x36D6D, offset: 0x36D6D, size: 0x8, addend: 0x0, symName: __ZN19Symbol_and_Assembly1MEv, symObjAddr: 0x1D730, symBinAddr: 0x100021610, symSize: 0x340 }
  - { offsetInCU: 0x36DE8, offset: 0x36DE8, size: 0x8, addend: 0x0, symName: __ZN19Symbol_and_Assembly1DEv, symObjAddr: 0x1DA70, symBinAddr: 0x100021950, symSize: 0x3A0 }
  - { offsetInCU: 0x36E63, offset: 0x36E63, size: 0x8, addend: 0x0, symName: __ZN19Symbol_and_Assembly1AEv, symObjAddr: 0x1DE10, symBinAddr: 0x100021CF0, symSize: 0x330 }
  - { offsetInCU: 0x36EDE, offset: 0x36EDE, size: 0x8, addend: 0x0, symName: __ZN19Symbol_and_Assembly1SEv, symObjAddr: 0x1E140, symBinAddr: 0x100022020, symSize: 0x320 }
  - { offsetInCU: 0x36F59, offset: 0x36F59, size: 0x8, addend: 0x0, symName: __ZNRSt3__18optionalIiE5valueB7v160006Ev, symObjAddr: 0x1E460, symBinAddr: 0x100022340, symSize: 0x40 }
  - { offsetInCU: 0x36F7F, offset: 0x36F7F, size: 0x8, addend: 0x0, symName: __ZNRSt3__18optionalIbE5valueB7v160006Ev, symObjAddr: 0x1E4A0, symBinAddr: 0x100022380, symSize: 0x40 }
  - { offsetInCU: 0x36FA5, offset: 0x36FA5, size: 0x8, addend: 0x0, symName: __ZNRSt3__18optionalIdE5valueB7v160006Ev, symObjAddr: 0x1E4E0, symBinAddr: 0x1000223C0, symSize: 0x40 }
  - { offsetInCU: 0x36FCB, offset: 0x36FCB, size: 0x8, addend: 0x0, symName: __ZNRSt3__123__optional_storage_baseIiLb0EE5__getB7v160006Ev, symObjAddr: 0x1E520, symBinAddr: 0x100022400, symSize: 0x10 }
  - { offsetInCU: 0x36FF1, offset: 0x36FF1, size: 0x8, addend: 0x0, symName: __ZNRSt3__123__optional_storage_baseIbLb0EE5__getB7v160006Ev, symObjAddr: 0x1E530, symBinAddr: 0x100022410, symSize: 0x10 }
  - { offsetInCU: 0x37017, offset: 0x37017, size: 0x8, addend: 0x0, symName: __ZNKSt3__123__optional_storage_baseIdLb0EE9has_valueB7v160006Ev, symObjAddr: 0x1E540, symBinAddr: 0x100022420, symSize: 0x20 }
  - { offsetInCU: 0x3703D, offset: 0x3703D, size: 0x8, addend: 0x0, symName: __ZNRSt3__123__optional_storage_baseIdLb0EE5__getB7v160006Ev, symObjAddr: 0x1E560, symBinAddr: 0x100022440, symSize: 0x10 }
  - { offsetInCU: 0x37063, offset: 0x37063, size: 0x8, addend: 0x0, symName: __ZN5ValueaSEOS_, symObjAddr: 0x1E570, symBinAddr: 0x100022450, symSize: 0x60 }
  - { offsetInCU: 0x37094, offset: 0x37094, size: 0x8, addend: 0x0, symName: __ZN5ValueC1Ed, symObjAddr: 0x1E5D0, symBinAddr: 0x1000224B0, symSize: 0x30 }
  - { offsetInCU: 0x370CC, offset: 0x370CC, size: 0x8, addend: 0x0, symName: __ZN5ValueC2Ed, symObjAddr: 0x1E600, symBinAddr: 0x1000224E0, symSize: 0x60 }
  - { offsetInCU: 0x37104, offset: 0x37104, size: 0x8, addend: 0x0, symName: __ZNSt3__18optionalIdEC1B7v160006IRdLi0EEEOT_, symObjAddr: 0x1E660, symBinAddr: 0x100022540, symSize: 0x30 }
  - { offsetInCU: 0x3714C, offset: 0x3714C, size: 0x8, addend: 0x0, symName: __ZNSt3__18optionalIdEC2B7v160006IRdLi0EEEOT_, symObjAddr: 0x1E690, symBinAddr: 0x100022570, symSize: 0x30 }
  - { offsetInCU: 0x37194, offset: 0x37194, size: 0x8, addend: 0x0, symName: __ZNSt3__127__optional_move_assign_baseIdLb1EECI2NS_24__optional_destruct_baseIdLb1EEEIJRdEEENS_10in_place_tEDpOT_, symObjAddr: 0x1E6C0, symBinAddr: 0x1000225A0, symSize: 0x30 }
  - { offsetInCU: 0x371D3, offset: 0x371D3, size: 0x8, addend: 0x0, symName: __ZNSt3__127__optional_copy_assign_baseIdLb1EECI2NS_24__optional_destruct_baseIdLb1EEEIJRdEEENS_10in_place_tEDpOT_, symObjAddr: 0x1E6F0, symBinAddr: 0x1000225D0, symSize: 0x30 }
  - { offsetInCU: 0x37212, offset: 0x37212, size: 0x8, addend: 0x0, symName: __ZNSt3__120__optional_move_baseIdLb1EECI2NS_24__optional_destruct_baseIdLb1EEEIJRdEEENS_10in_place_tEDpOT_, symObjAddr: 0x1E720, symBinAddr: 0x100022600, symSize: 0x30 }
  - { offsetInCU: 0x37251, offset: 0x37251, size: 0x8, addend: 0x0, symName: __ZNSt3__120__optional_copy_baseIdLb1EECI2NS_24__optional_destruct_baseIdLb1EEEIJRdEEENS_10in_place_tEDpOT_, symObjAddr: 0x1E750, symBinAddr: 0x100022630, symSize: 0x30 }
  - { offsetInCU: 0x37290, offset: 0x37290, size: 0x8, addend: 0x0, symName: __ZNSt3__123__optional_storage_baseIdLb0EECI2NS_24__optional_destruct_baseIdLb1EEEIJRdEEENS_10in_place_tEDpOT_, symObjAddr: 0x1E780, symBinAddr: 0x100022660, symSize: 0x30 }
  - { offsetInCU: 0x372CF, offset: 0x372CF, size: 0x8, addend: 0x0, symName: __ZNSt3__124__optional_destruct_baseIdLb1EEC2B7v160006IJRdEEENS_10in_place_tEDpOT_, symObjAddr: 0x1E7B0, symBinAddr: 0x100022690, symSize: 0x30 }
  - { offsetInCU: 0x3731F, offset: 0x3731F, size: 0x8, addend: 0x0, symName: __ZNSt3__16vectorIN19Symbol_and_Assembly11InstructionENS_9allocatorIS2_EEE12emplace_backIJiRNS_12basic_stringIcNS_11char_traitsIcEENS3_IcEEEERNS_8optionalIiEEEEERS2_DpOT_, symObjAddr: 0x1E7E0, symBinAddr: 0x1000226C0, symSize: 0x80 }
  - { offsetInCU: 0x37389, offset: 0x37389, size: 0x8, addend: 0x0, symName: __ZNSt3__16vectorIN19Symbol_and_Assembly11InstructionENS_9allocatorIS2_EEE22__construct_one_at_endB7v160006IJiRNS_12basic_stringIcNS_11char_traitsIcEENS3_IcEEEERNS_8optionalIiEEEEEvDpOT_, symObjAddr: 0x1E860, symBinAddr: 0x100022740, symSize: 0xA0 }
  - { offsetInCU: 0x37400, offset: 0x37400, size: 0x8, addend: 0x0, symName: __ZNSt3__16vectorIN19Symbol_and_Assembly11InstructionENS_9allocatorIS2_EEE24__emplace_back_slow_pathIJiRNS_12basic_stringIcNS_11char_traitsIcEENS3_IcEEEERNS_8optionalIiEEEEEvDpOT_, symObjAddr: 0x1E900, symBinAddr: 0x1000227E0, symSize: 0xF0 }
  - { offsetInCU: 0x37489, offset: 0x37489, size: 0x8, addend: 0x0, symName: __ZNSt3__16vectorIN19Symbol_and_Assembly11InstructionENS_9allocatorIS2_EEE4backB7v160006Ev, symObjAddr: 0x1E9F0, symBinAddr: 0x1000228D0, symSize: 0x20 }
  - { offsetInCU: 0x374CB, offset: 0x374CB, size: 0x8, addend: 0x0, symName: __ZNSt3__16vectorIN19Symbol_and_Assembly11InstructionENS_9allocatorIS2_EEE21_ConstructTransactionC1B7v160006ERS5_m, symObjAddr: 0x1EA10, symBinAddr: 0x1000228F0, symSize: 0x30 }
  - { offsetInCU: 0x37513, offset: 0x37513, size: 0x8, addend: 0x0, symName: __ZNSt3__116allocator_traitsINS_9allocatorIN19Symbol_and_Assembly11InstructionEEEE9constructB7v160006IS3_JiRNS_12basic_stringIcNS_11char_traitsIcEENS1_IcEEEERNS_8optionalIiEEEvEEvRS4_PT_DpOT0_, symObjAddr: 0x1EA40, symBinAddr: 0x100022920, symSize: 0x40 }
  - { offsetInCU: 0x37592, offset: 0x37592, size: 0x8, addend: 0x0, symName: __ZNSt3__16vectorIN19Symbol_and_Assembly11InstructionENS_9allocatorIS2_EEE21_ConstructTransactionD1B7v160006Ev, symObjAddr: 0x1EA80, symBinAddr: 0x100022960, symSize: 0x20 }
  - { offsetInCU: 0x375BC, offset: 0x375BC, size: 0x8, addend: 0x0, symName: __ZNSt3__16vectorIN19Symbol_and_Assembly11InstructionENS_9allocatorIS2_EEE21_ConstructTransactionC2B7v160006ERS5_m, symObjAddr: 0x1EAA0, symBinAddr: 0x100022980, symSize: 0x40 }
  - { offsetInCU: 0x37604, offset: 0x37604, size: 0x8, addend: 0x0, symName: __ZNSt3__19allocatorIN19Symbol_and_Assembly11InstructionEE9constructB7v160006IS2_JiRNS_12basic_stringIcNS_11char_traitsIcEENS0_IcEEEERNS_8optionalIiEEEEEvPT_DpOT0_, symObjAddr: 0x1EAE0, symBinAddr: 0x1000229C0, symSize: 0x50 }
  - { offsetInCU: 0x37680, offset: 0x37680, size: 0x8, addend: 0x0, symName: __ZN19Symbol_and_Assembly11InstructionC1EiRKNSt3__112basic_stringIcNS1_11char_traitsIcEENS1_9allocatorIcEEEENS1_8optionalIiEE, symObjAddr: 0x1EB30, symBinAddr: 0x100022A10, symSize: 0x40 }
  - { offsetInCU: 0x376D4, offset: 0x376D4, size: 0x8, addend: 0x0, symName: __ZN19Symbol_and_Assembly11InstructionC2EiRKNSt3__112basic_stringIcNS1_11char_traitsIcEENS1_9allocatorIcEEEENS1_8optionalIiEE, symObjAddr: 0x1EB70, symBinAddr: 0x100022A50, symSize: 0x50 }
  - { offsetInCU: 0x37728, offset: 0x37728, size: 0x8, addend: 0x0, symName: __ZNSt3__16vectorIN19Symbol_and_Assembly11InstructionENS_9allocatorIS2_EEE21_ConstructTransactionD2B7v160006Ev, symObjAddr: 0x1EBC0, symBinAddr: 0x100022AA0, symSize: 0x20 }
  - { offsetInCU: 0x37752, offset: 0x37752, size: 0x8, addend: 0x0, symName: __ZNKSt3__16vectorIN19Symbol_and_Assembly11InstructionENS_9allocatorIS2_EEE11__recommendB7v160006Em, symObjAddr: 0x1EBE0, symBinAddr: 0x100022AC0, symSize: 0xA0 }
  - { offsetInCU: 0x377A7, offset: 0x377A7, size: 0x8, addend: 0x0, symName: __ZNSt3__18optionalIiEC2B7v160006ENS_9nullopt_tE, symObjAddr: 0x1EC80, symBinAddr: 0x100022B60, symSize: 0x20 }
  - { offsetInCU: 0x377DD, offset: 0x377DD, size: 0x8, addend: 0x0, symName: __ZNKSt3__15stackIiNS_5dequeIiNS_9allocatorIiEEEEE4sizeB7v160006Ev, symObjAddr: 0x1ECA0, symBinAddr: 0x100022B80, symSize: 0x20 }
  - { offsetInCU: 0x37803, offset: 0x37803, size: 0x8, addend: 0x0, symName: __ZNSt3__15stackIiNS_5dequeIiNS_9allocatorIiEEEEE3topB7v160006Ev, symObjAddr: 0x1ECC0, symBinAddr: 0x100022BA0, symSize: 0x20 }
  - { offsetInCU: 0x37829, offset: 0x37829, size: 0x8, addend: 0x0, symName: __ZNSt3__15stackIiNS_5dequeIiNS_9allocatorIiEEEEE3popB7v160006Ev, symObjAddr: 0x1ECE0, symBinAddr: 0x100022BC0, symSize: 0x20 }
  - { offsetInCU: 0x3784F, offset: 0x3784F, size: 0x8, addend: 0x0, symName: __ZNSt3__16vectorIN19Symbol_and_Assembly11InstructionENS_9allocatorIS2_EEEixB7v160006Em, symObjAddr: 0x1ED00, symBinAddr: 0x100022BE0, symSize: 0x20 }
  - { offsetInCU: 0x37886, offset: 0x37886, size: 0x8, addend: 0x0, symName: __ZNSt3__15dequeIiNS_9allocatorIiEEE4backEv, symObjAddr: 0x1ED20, symBinAddr: 0x100022C00, symSize: 0x60 }
  - { offsetInCU: 0x378BD, offset: 0x378BD, size: 0x8, addend: 0x0, symName: __ZNSt3__15dequeIiNS_9allocatorIiEEE8pop_backEv, symObjAddr: 0x1ED80, symBinAddr: 0x100022C60, symSize: 0xA0 }
  - { offsetInCU: 0x37903, offset: 0x37903, size: 0x8, addend: 0x0, symName: __ZNSt3__15dequeIiNS_9allocatorIiEEE25__maybe_remove_back_spareB7v160006Eb, symObjAddr: 0x1EE30, symBinAddr: 0x100022D10, symSize: 0xA0 }
  - { offsetInCU: 0x37938, offset: 0x37938, size: 0x8, addend: 0x0, symName: __ZNKSt3__15dequeIiNS_9allocatorIiEEE19__back_spare_blocksB7v160006Ev, symObjAddr: 0x1EED0, symBinAddr: 0x100022DB0, symSize: 0x20 }
  - { offsetInCU: 0x3795E, offset: 0x3795E, size: 0x8, addend: 0x0, symName: __ZNSt3__114__split_bufferIPiNS_9allocatorIS1_EEE4backB7v160006Ev, symObjAddr: 0x1EEF0, symBinAddr: 0x100022DD0, symSize: 0x20 }
  - { offsetInCU: 0x37984, offset: 0x37984, size: 0x8, addend: 0x0, symName: __ZNSt3__114__split_bufferIPiNS_9allocatorIS1_EEE8pop_backB7v160006Ev, symObjAddr: 0x1EF10, symBinAddr: 0x100022DF0, symSize: 0x30 }
  - { offsetInCU: 0x379AA, offset: 0x379AA, size: 0x8, addend: 0x0, symName: __ZN19Symbol_and_Assembly20display_instructionsERNSt3__113basic_ostreamIcNS0_11char_traitsIcEEEE, symObjAddr: 0x1EF40, symBinAddr: 0x100022E20, symSize: 0x150 }
  - { offsetInCU: 0x37A2F, offset: 0x37A2F, size: 0x8, addend: 0x0, symName: __ZN19Symbol_and_Assembly20display_symbol_tableERNSt3__113basic_ostreamIcNS0_11char_traitsIcEEEE, symObjAddr: 0x1F090, symBinAddr: 0x100022F70, symSize: 0x410 }
  - { offsetInCU: 0x37AB4, offset: 0x37AB4, size: 0x8, addend: 0x0, symName: __ZNSt3__114basic_ofstreamIcNS_11char_traitsIcEEE5closeEv, symObjAddr: 0x1F4A0, symBinAddr: 0x100023380, symSize: 0x50 }
  - { offsetInCU: 0x37ADC, offset: 0x37ADC, size: 0x8, addend: 0x0, symName: __ZNSt3__16vectorIN19Symbol_and_Assembly11InstructionENS_9allocatorIS2_EEE5beginB7v160006Ev, symObjAddr: 0x1F4F0, symBinAddr: 0x1000233D0, symSize: 0x30 }
  - { offsetInCU: 0x37B04, offset: 0x37B04, size: 0x8, addend: 0x0, symName: __ZNSt3__16vectorIN19Symbol_and_Assembly11InstructionENS_9allocatorIS2_EEE3endB7v160006Ev, symObjAddr: 0x1F520, symBinAddr: 0x100023400, symSize: 0x30 }
  - { offsetInCU: 0x37B2C, offset: 0x37B2C, size: 0x8, addend: 0x0, symName: __ZNKSt3__111__wrap_iterIPN19Symbol_and_Assembly11InstructionEEdeB7v160006Ev, symObjAddr: 0x1F580, symBinAddr: 0x100023460, symSize: 0x20 }
  - { offsetInCU: 0x37B52, offset: 0x37B52, size: 0x8, addend: 0x0, symName: __ZNSt3__111__wrap_iterIPN19Symbol_and_Assembly11InstructionEEppB7v160006Ev, symObjAddr: 0x1F5A0, symBinAddr: 0x100023480, symSize: 0x20 }
  - { offsetInCU: 0x37B78, offset: 0x37B78, size: 0x8, addend: 0x0, symName: __ZNSt3__16vectorIN19Symbol_and_Assembly11InstructionENS_9allocatorIS2_EEE11__make_iterB7v160006EPS2_, symObjAddr: 0x1F5C0, symBinAddr: 0x1000234A0, symSize: 0x30 }
  - { offsetInCU: 0x37BAD, offset: 0x37BAD, size: 0x8, addend: 0x0, symName: __ZNSt3__111__wrap_iterIPN19Symbol_and_Assembly11InstructionEEC1B7v160006EPKvS3_, symObjAddr: 0x1F5F0, symBinAddr: 0x1000234D0, symSize: 0x30 }
  - { offsetInCU: 0x37BF3, offset: 0x37BF3, size: 0x8, addend: 0x0, symName: __ZNSt3__111__wrap_iterIPN19Symbol_and_Assembly11InstructionEEC2B7v160006EPKvS3_, symObjAddr: 0x1F620, symBinAddr: 0x100023500, symSize: 0x20 }
  - { offsetInCU: 0x37C39, offset: 0x37C39, size: 0x8, addend: 0x0, symName: __ZNKSt3__111__wrap_iterIPN19Symbol_and_Assembly11InstructionEE4baseB7v160006Ev, symObjAddr: 0x1F680, symBinAddr: 0x100023560, symSize: 0x20 }
  - { offsetInCU: 0x37C5F, offset: 0x37C5F, size: 0x8, addend: 0x0, symName: __ZNSt3__113unordered_mapINS_12basic_stringIcNS_11char_traitsIcEENS_9allocatorIcEEEEN19Symbol_and_Assembly10SymbolInfoENS_4hashIS6_EENS_8equal_toIS6_EENS4_INS_4pairIKS6_S8_EEEEE5beginB7v160006Ev, symObjAddr: 0x1F6A0, symBinAddr: 0x100023580, symSize: 0x30 }
  - { offsetInCU: 0x37C85, offset: 0x37C85, size: 0x8, addend: 0x0, symName: __ZNKSt3__119__hash_map_iteratorINS_15__hash_iteratorIPNS_11__hash_nodeINS_17__hash_value_typeINS_12basic_stringIcNS_11char_traitsIcEENS_9allocatorIcEEEEN19Symbol_and_Assembly10SymbolInfoEEEPvEEEEEdeB7v160006Ev, symObjAddr: 0x1F6D0, symBinAddr: 0x1000235B0, symSize: 0x30 }
  - { offsetInCU: 0x37CAB, offset: 0x37CAB, size: 0x8, addend: 0x0, symName: __ZNKRSt3__18optionalIdE5valueB7v160006Ev, symObjAddr: 0x1F700, symBinAddr: 0x1000235E0, symSize: 0x40 }
  - { offsetInCU: 0x37CD1, offset: 0x37CD1, size: 0x8, addend: 0x0, symName: __ZNSt3__119__hash_map_iteratorINS_15__hash_iteratorIPNS_11__hash_nodeINS_17__hash_value_typeINS_12basic_stringIcNS_11char_traitsIcEENS_9allocatorIcEEEEN19Symbol_and_Assembly10SymbolInfoEEEPvEEEEEppB7v160006Ev, symObjAddr: 0x1F740, symBinAddr: 0x100023620, symSize: 0x30 }
  - { offsetInCU: 0x37CF7, offset: 0x37CF7, size: 0x8, addend: 0x0, symName: __ZNSt3__112__hash_tableINS_17__hash_value_typeINS_12basic_stringIcNS_11char_traitsIcEENS_9allocatorIcEEEEN19Symbol_and_Assembly10SymbolInfoEEENS_22__unordered_map_hasherIS7_SA_NS_4hashIS7_EENS_8equal_toIS7_EELb1EEENS_21__unordered_map_equalIS7_SA_SF_SD_Lb1EEENS5_ISA_EEE5beginEv, symObjAddr: 0x1F770, symBinAddr: 0x100023650, symSize: 0x40 }
  - { offsetInCU: 0x37D1F, offset: 0x37D1F, size: 0x8, addend: 0x0, symName: __ZNKRSt3__123__optional_storage_baseIdLb0EE5__getB7v160006Ev, symObjAddr: 0x1F7B0, symBinAddr: 0x100023690, symSize: 0x10 }
  - { offsetInCU: 0x37D45, offset: 0x37D45, size: 0x8, addend: 0x0, symName: __ZNSt3__115__hash_iteratorIPNS_11__hash_nodeINS_17__hash_value_typeINS_12basic_stringIcNS_11char_traitsIcEENS_9allocatorIcEEEEN19Symbol_and_Assembly10SymbolInfoEEEPvEEEppB7v160006Ev, symObjAddr: 0x1F7C0, symBinAddr: 0x1000236A0, symSize: 0x20 }
  - { offsetInCU: 0x37D6B, offset: 0x37D6B, size: 0x8, addend: 0x0, symName: __ZN16OutputRedirectorD2Ev, symObjAddr: 0x1F7E0, symBinAddr: 0x1000236C0, symSize: 0x90 }
  - { offsetInCU: 0x37D95, offset: 0x37D95, size: 0x8, addend: 0x0, symName: __ZN14SyntaxAnalyzerD2Ev, symObjAddr: 0x1F870, symBinAddr: 0x100023750, symSize: 0x30 }
  - { offsetInCU: 0x37DC2, offset: 0x37DC2, size: 0x8, addend: 0x0, symName: __ZN19Symbol_and_AssemblyD1Ev, symObjAddr: 0x1F8A0, symBinAddr: 0x100023780, symSize: 0x20 }
  - { offsetInCU: 0x37DEE, offset: 0x37DEE, size: 0x8, addend: 0x0, symName: __ZN19Symbol_and_AssemblyD2Ev, symObjAddr: 0x1F8C0, symBinAddr: 0x1000237A0, symSize: 0x50 }
  - { offsetInCU: 0x37E1A, offset: 0x37E1A, size: 0x8, addend: 0x0, symName: __ZNSt3__114basic_ofstreamIcNS_11char_traitsIcEEED2Ev, symObjAddr: 0x1F910, symBinAddr: 0x1000237F0, symSize: 0x60 }
  - { offsetInCU: 0x37E54, offset: 0x37E54, size: 0x8, addend: 0x0, symName: __ZTv0_n24_NSt3__114basic_ofstreamIcNS_11char_traitsIcEEED1Ev, symObjAddr: 0x1F970, symBinAddr: 0x100023850, symSize: 0x20 }
  - { offsetInCU: 0x37E6B, offset: 0x37E6B, size: 0x8, addend: 0x0, symName: __ZN15LexicalAnalyzerD2Ev, symObjAddr: 0x1F990, symBinAddr: 0x100023870, symSize: 0x20 }
  - { offsetInCU: 0x37E97, offset: 0x37E97, size: 0x8, addend: 0x0, symName: __ZNSt3__112basic_stringIcNS_11char_traitsIcEENS_9allocatorIcEEEC2B7v160006Ev, symObjAddr: 0x1F9B0, symBinAddr: 0x100023890, symSize: 0x50 }
  - { offsetInCU: 0x37EDE, offset: 0x37EDE, size: 0x8, addend: 0x0, symName: __ZNKSt3__113basic_ostreamIcNS_11char_traitsIcEEE6sentrycvbB7v160006Ev, symObjAddr: 0x1FBF0, symBinAddr: 0x100023AD0, symSize: 0x20 }
  - { offsetInCU: 0x37F04, offset: 0x37F04, size: 0x8, addend: 0x0, symName: __ZNSt3__119ostreambuf_iteratorIcNS_11char_traitsIcEEEC1B7v160006ERNS_13basic_ostreamIcS2_EE, symObjAddr: 0x1FE30, symBinAddr: 0x100023D10, symSize: 0x30 }
  - { offsetInCU: 0x37F3C, offset: 0x37F3C, size: 0x8, addend: 0x0, symName: __ZNKSt3__18ios_base5flagsB7v160006Ev, symObjAddr: 0x1FE60, symBinAddr: 0x100023D40, symSize: 0x20 }
  - { offsetInCU: 0x37F64, offset: 0x37F64, size: 0x8, addend: 0x0, symName: __ZNKSt3__19basic_iosIcNS_11char_traitsIcEEE4fillB7v160006Ev, symObjAddr: 0x1FE80, symBinAddr: 0x100023D60, symSize: 0x70 }
  - { offsetInCU: 0x37F8C, offset: 0x37F8C, size: 0x8, addend: 0x0, symName: __ZNKSt3__119ostreambuf_iteratorIcNS_11char_traitsIcEEE6failedB7v160006Ev, symObjAddr: 0x1FEF0, symBinAddr: 0x100023DD0, symSize: 0x20 }
  - { offsetInCU: 0x37FB2, offset: 0x37FB2, size: 0x8, addend: 0x0, symName: __ZNSt3__115basic_streambufIcNS_11char_traitsIcEEE5sputnB7v160006EPKcl, symObjAddr: 0x1FF10, symBinAddr: 0x100023DF0, symSize: 0x30 }
  - { offsetInCU: 0x37FF4, offset: 0x37FF4, size: 0x8, addend: 0x0, symName: __ZNSt3__112basic_stringIcNS_11char_traitsIcEENS_9allocatorIcEEE4dataB7v160006Ev, symObjAddr: 0x1FF40, symBinAddr: 0x100023E20, symSize: 0x30 }
  - { offsetInCU: 0x3801A, offset: 0x3801A, size: 0x8, addend: 0x0, symName: __ZNSt3__112basic_stringIcNS_11char_traitsIcEENS_9allocatorIcEEE13__get_pointerB7v160006Ev, symObjAddr: 0x1FF80, symBinAddr: 0x100023E60, symSize: 0x50 }
  - { offsetInCU: 0x38040, offset: 0x38040, size: 0x8, addend: 0x0, symName: __ZNSt3__119ostreambuf_iteratorIcNS_11char_traitsIcEEEC2B7v160006ERNS_13basic_ostreamIcS2_EE, symObjAddr: 0x1FFD0, symBinAddr: 0x100023EB0, symSize: 0x50 }
  - { offsetInCU: 0x38078, offset: 0x38078, size: 0x8, addend: 0x0, symName: __ZNKSt3__19basic_iosIcNS_11char_traitsIcEEE5widenB7v160006Ec, symObjAddr: 0x20020, symBinAddr: 0x100023F00, symSize: 0x80 }
  - { offsetInCU: 0x380AF, offset: 0x380AF, size: 0x8, addend: 0x0, symName: __ZNKSt3__15ctypeIcE5widenB7v160006Ec, symObjAddr: 0x200A0, symBinAddr: 0x100023F80, symSize: 0x30 }
  - { offsetInCU: 0x380E4, offset: 0x380E4, size: 0x8, addend: 0x0, symName: __ZNSt3__112basic_stringIcNS_11char_traitsIcEENS_9allocatorIcEEEC2B7v160006IDnEEPKc, symObjAddr: 0x200D0, symBinAddr: 0x100023FB0, symSize: 0x60 }
  - { offsetInCU: 0x38122, offset: 0x38122, size: 0x8, addend: 0x0, symName: __ZNSt3__111char_traitsIcE2eqEcc, symObjAddr: 0x20350, symBinAddr: 0x100024230, symSize: 0x30 }
  - { offsetInCU: 0x38153, offset: 0x38153, size: 0x8, addend: 0x0, symName: __ZNSt3__16vectorI5TokenNS_9allocatorIS1_EEEC2B7v160006Ev, symObjAddr: 0x20380, symBinAddr: 0x100024260, symSize: 0x60 }
  - { offsetInCU: 0x3817D, offset: 0x3817D, size: 0x8, addend: 0x0, symName: __ZNSt3__117__compressed_pairIP5TokenNS_9allocatorIS1_EEEC1B7v160006IDnNS_18__default_init_tagEEEOT_OT0_, symObjAddr: 0x203E0, symBinAddr: 0x1000242C0, symSize: 0x30 }
  - { offsetInCU: 0x381D5, offset: 0x381D5, size: 0x8, addend: 0x0, symName: __ZNSt3__117__compressed_pairIP5TokenNS_9allocatorIS1_EEEC2B7v160006IDnNS_18__default_init_tagEEEOT_OT0_, symObjAddr: 0x20420, symBinAddr: 0x100024300, symSize: 0x40 }
  - { offsetInCU: 0x3822D, offset: 0x3822D, size: 0x8, addend: 0x0, symName: __ZNSt3__122__compressed_pair_elemINS_9allocatorI5TokenEELi1ELb1EEC2B7v160006ENS_18__default_init_tagE, symObjAddr: 0x20460, symBinAddr: 0x100024340, symSize: 0x20 }
  - { offsetInCU: 0x38262, offset: 0x38262, size: 0x8, addend: 0x0, symName: __ZNSt3__19allocatorI5TokenEC2B7v160006Ev, symObjAddr: 0x20480, symBinAddr: 0x100024360, symSize: 0x20 }
  - { offsetInCU: 0x3828C, offset: 0x3828C, size: 0x8, addend: 0x0, symName: __ZNSt3__116__non_trivial_ifILb1ENS_9allocatorI5TokenEEEC2B7v160006Ev, symObjAddr: 0x204A0, symBinAddr: 0x100024380, symSize: 0x10 }
  - { offsetInCU: 0x382B6, offset: 0x382B6, size: 0x8, addend: 0x0, symName: __ZNSt3__16vectorI5TokenNS_9allocatorIS1_EEED2B7v160006Ev, symObjAddr: 0x204B0, symBinAddr: 0x100024390, symSize: 0x40 }
  - { offsetInCU: 0x382E0, offset: 0x382E0, size: 0x8, addend: 0x0, symName: __ZNSt3__16vectorI5TokenNS_9allocatorIS1_EEE16__destroy_vectorC1ERS4_, symObjAddr: 0x204F0, symBinAddr: 0x1000243D0, symSize: 0x30 }
  - { offsetInCU: 0x38319, offset: 0x38319, size: 0x8, addend: 0x0, symName: __ZNSt3__16vectorI5TokenNS_9allocatorIS1_EEE16__destroy_vectorclB7v160006Ev, symObjAddr: 0x20520, symBinAddr: 0x100024400, symSize: 0x90 }
  - { offsetInCU: 0x3833F, offset: 0x3833F, size: 0x8, addend: 0x0, symName: __ZNSt3__16vectorI5TokenNS_9allocatorIS1_EEE16__destroy_vectorC2ERS4_, symObjAddr: 0x205B0, symBinAddr: 0x100024490, symSize: 0x20 }
  - { offsetInCU: 0x38378, offset: 0x38378, size: 0x8, addend: 0x0, symName: __ZNSt3__16vectorI5TokenNS_9allocatorIS1_EEE7__clearB7v160006Ev, symObjAddr: 0x205E0, symBinAddr: 0x1000244C0, symSize: 0x20 }
  - { offsetInCU: 0x3839E, offset: 0x3839E, size: 0x8, addend: 0x0, symName: __ZNSt3__16vectorI5TokenNS_9allocatorIS1_EEE22__base_destruct_at_endB7v160006EPS1_, symObjAddr: 0x20600, symBinAddr: 0x1000244E0, symSize: 0x80 }
  - { offsetInCU: 0x383E2, offset: 0x383E2, size: 0x8, addend: 0x0, symName: __ZNSt3__16vectorI5TokenNS_9allocatorIS1_EEE22__construct_one_at_endB7v160006IJRKS1_EEEvDpOT_, symObjAddr: 0x20680, symBinAddr: 0x100024560, symSize: 0x90 }
  - { offsetInCU: 0x38431, offset: 0x38431, size: 0x8, addend: 0x0, symName: __ZNSt3__16vectorI5TokenNS_9allocatorIS1_EEE21__push_back_slow_pathIRKS1_EEvOT_, symObjAddr: 0x20710, symBinAddr: 0x1000245F0, symSize: 0xD0 }
  - { offsetInCU: 0x3848F, offset: 0x3848F, size: 0x8, addend: 0x0, symName: __ZNSt3__116allocator_traitsINS_9allocatorI5TokenEEE9constructB7v160006IS2_JRKS2_EvEEvRS3_PT_DpOT0_, symObjAddr: 0x207E0, symBinAddr: 0x1000246C0, symSize: 0x30 }
  - { offsetInCU: 0x384E6, offset: 0x384E6, size: 0x8, addend: 0x0, symName: __ZNSt3__19allocatorI5TokenE9constructB7v160006IS1_JRKS1_EEEvPT_DpOT0_, symObjAddr: 0x20810, symBinAddr: 0x1000246F0, symSize: 0x27 }
...
